TN:
SF:/home/runner/work/fuelflux/fuelflux/include/backend.h
FN:31,31,_ZN8fuelflux8IBackendD0Ev
FN:31,31,_ZN8fuelflux8IBackendD2Ev
FN:65,65,_ZN8fuelflux11BackendBaseD0Ev
FN:65,65,_ZN8fuelflux11BackendBaseD2Ev
FN:74,74,_ZNK8fuelflux11BackendBase12IsAuthorizedEv
FN:75,75,_ZNK8fuelflux11BackendBase8GetTokenB5cxx11Ev
FN:76,76,_ZNK8fuelflux11BackendBase9GetRoleIdEv
FN:77,77,_ZNK8fuelflux11BackendBase12GetAllowanceEv
FN:78,78,_ZNK8fuelflux11BackendBase8GetPriceEv
FN:79,79,_ZNK8fuelflux11BackendBase12GetFuelTanksEv
FN:80,80,_ZNK8fuelflux11BackendBase12GetLastErrorB5cxx11Ev
FN:81,81,_ZNK8fuelflux11BackendBase14IsNetworkErrorEv
FNDA:0,_ZN8fuelflux8IBackendD0Ev
FNDA:84,_ZN8fuelflux8IBackendD2Ev
FNDA:0,_ZN8fuelflux11BackendBaseD0Ev
FNDA:27,_ZN8fuelflux11BackendBaseD2Ev
FNDA:17,_ZNK8fuelflux11BackendBase12IsAuthorizedEv
FNDA:9,_ZNK8fuelflux11BackendBase8GetTokenB5cxx11Ev
FNDA:3,_ZNK8fuelflux11BackendBase9GetRoleIdEv
FNDA:4,_ZNK8fuelflux11BackendBase12GetAllowanceEv
FNDA:2,_ZNK8fuelflux11BackendBase8GetPriceEv
FNDA:6,_ZNK8fuelflux11BackendBase12GetFuelTanksEv
FNDA:9,_ZNK8fuelflux11BackendBase12GetLastErrorB5cxx11Ev
FNDA:0,_ZNK8fuelflux11BackendBase14IsNetworkErrorEv
FNF:12
FNH:9
DA:31,84
DA:65,27
DA:74,17
DA:75,9
DA:76,3
DA:77,4
DA:78,2
DA:79,6
DA:80,9
DA:81,0
LF:10
LH:9
end_of_record
TN:
SF:/home/runner/work/fuelflux/fuelflux/include/backend_utils.h
FN:21,37,_ZN8fuelflux15IsErrorResponseERKN8nlohmann16json_abi_v3_11_310basic_jsonISt3mapSt6vectorNSt7__cxx1112basic_stringIcSt11char_traitsIcESaIcEEEblmdSaNS1_14adl_serializerES4_IhSaIhEEvEEPSA_
FN:39,44,_ZN8fuelflux25BuildWrapperErrorResponseB5cxx11Ev
FNDA:76,_ZN8fuelflux15IsErrorResponseERKN8nlohmann16json_abi_v3_11_310basic_jsonISt3mapSt6vectorNSt7__cxx1112basic_stringIcSt11char_traitsIcESaIcEEEblmdSaNS1_14adl_serializerES4_IhSaIhEEvEEPSA_
FNDA:8,_ZN8fuelflux25BuildWrapperErrorResponseB5cxx11Ev
FNF:2
FNH:2
DA:21,76
DA:22,76
DA:23,3
DA:25,73
DA:26,73
DA:27,14
DA:29,59
DA:30,59
DA:31,50
DA:33,9
DA:34,9
DA:36,9
DA:39,8
DA:43,64
DA:44,48
LF:15
LH:15
end_of_record
TN:
SF:/home/runner/work/fuelflux/fuelflux/include/cares_resolver.h
FNF:0
FNH:0
LF:0
LH:0
end_of_record
TN:
SF:/home/runner/work/fuelflux/fuelflux/include/config.h
FNF:0
FNH:0
LF:0
LH:0
end_of_record
TN:
SF:/home/runner/work/fuelflux/fuelflux/include/controller.h
FN:67,67,_ZN8fuelflux10Controller15getStateMachineEv
FN:71,71,_ZNK8fuelflux10Controller14getCurrentUserEv
FN:72,72,_ZNK8fuelflux10Controller17getAvailableTanksEv
FN:73,73,_ZNK8fuelflux10Controller15getSelectedTankEv
FN:74,74,_ZNK8fuelflux10Controller16getEnteredVolumeEv
FN:75,75,_ZNK8fuelflux10Controller15getCurrentInputB5cxx11Ev
FN:76,76,_ZNK8fuelflux10Controller26getSelectedIntakeDirectionEv
FN:77,77,_ZNK8fuelflux10Controller22getCurrentRefuelVolumeEv
FN:78,78,_ZNK8fuelflux10Controller19getLastErrorMessageB5cxx11Ev
FNDA:95,_ZN8fuelflux10Controller15getStateMachineEv
FNDA:36,_ZNK8fuelflux10Controller14getCurrentUserEv
FNDA:18,_ZNK8fuelflux10Controller17getAvailableTanksEv
FNDA:22,_ZNK8fuelflux10Controller15getSelectedTankEv
FNDA:13,_ZNK8fuelflux10Controller16getEnteredVolumeEv
FNDA:102,_ZNK8fuelflux10Controller15getCurrentInputB5cxx11Ev
FNDA:11,_ZNK8fuelflux10Controller26getSelectedIntakeDirectionEv
FNDA:17,_ZNK8fuelflux10Controller22getCurrentRefuelVolumeEv
FNDA:4,_ZNK8fuelflux10Controller19getLastErrorMessageB5cxx11Ev
FNF:9
FNH:9
DA:67,95
DA:71,36
DA:72,18
DA:73,22
DA:74,13
DA:75,102
DA:76,11
DA:77,17
DA:78,4
LF:9
LH:9
end_of_record
TN:
SF:/home/runner/work/fuelflux/fuelflux/include/message_storage.h
FNF:0
FNH:0
LF:0
LH:0
end_of_record
TN:
SF:/home/runner/work/fuelflux/fuelflux/include/peripherals/keyboard_utils.h
FN:13,30,_ZN8fuelflux13charToKeyCodeEc
FNDA:0,_ZN8fuelflux13charToKeyCodeEc
FNF:1
FNH:0
DA:13,0
DA:14,0
DA:15,0
DA:16,0
DA:18,0
DA:19,0
DA:20,0
DA:21,0
DA:22,0
DA:23,0
DA:24,0
DA:25,0
DA:26,0
DA:27,0
DA:28,0
LF:15
LH:0
end_of_record
TN:
SF:/home/runner/work/fuelflux/fuelflux/include/peripherals/peripheral_interface.h
FN:15,15,_ZN8fuelflux11peripherals11IPeripheralD0Ev
FN:15,15,_ZN8fuelflux11peripherals11IPeripheralD2Ev
FNDA:0,_ZN8fuelflux11peripherals11IPeripheralD0Ev
FNDA:270,_ZN8fuelflux11peripherals11IPeripheralD2Ev
FNF:2
FNH:1
DA:15,270
LF:1
LH:1
end_of_record
TN:
SF:/home/runner/work/fuelflux/fuelflux/include/session.h
FN:18,18,_ZN8fuelflux7SessionC2Ev
FN:19,19,_ZN8fuelflux7SessionD2Ev
FN:28,32,_ZN8fuelflux7Session8SetTokenERKNSt7__cxx1112basic_stringIcSt11char_traitsIcESaIcEEE
FN:35,38,_ZNK8fuelflux7Session8GetTokenB5cxx11Ev
FN:41,45,_ZN8fuelflux7Session5ClearEv
FN:48,51,_ZNK8fuelflux7Session12IsAuthorizedEv
FNDA:27,_ZN8fuelflux7SessionC2Ev
FNDA:27,_ZN8fuelflux7SessionD2Ev
FNDA:64,_ZN8fuelflux7Session8SetTokenERKNSt7__cxx1112basic_stringIcSt11char_traitsIcESaIcEEE
FNDA:61,_ZNK8fuelflux7Session8GetTokenB5cxx11Ev
FNDA:52,_ZN8fuelflux7Session5ClearEv
FNDA:155,_ZNK8fuelflux7Session12IsAuthorizedEv
FNF:6
FNH:6
DA:18,27
DA:19,27
DA:28,64
DA:29,64
DA:30,64
DA:31,64
DA:32,64
DA:35,61
DA:36,61
DA:37,122
DA:38,61
DA:41,52
DA:42,52
DA:43,52
DA:44,52
DA:45,52
DA:48,155
DA:49,155
DA:50,155
DA:51,155
LF:20
LH:20
end_of_record
TN:
SF:/home/runner/work/fuelflux/fuelflux/include/state_machine.h
FN:39,39,_ZNK8fuelflux12StateMachine15getCurrentStateEv
FNDA:144,_ZNK8fuelflux12StateMachine15getCurrentStateEv
FNF:1
FNH:1
DA:39,288
LF:1
LH:1
end_of_record
TN:
SF:/home/runner/work/fuelflux/fuelflux/include/types.h
FN:133,136,_ZNKSt4hashISt4pairIN8fuelflux11SystemStateENS1_5EventEEEclERKS4_
FNDA:14405,_ZNKSt4hashISt4pairIN8fuelflux11SystemStateENS1_5EventEEEclERKS4_
FNF:1
FNH:1
DA:133,14405
DA:134,14405
DA:135,14405
LF:3
LH:3
end_of_record
TN:
SF:/home/runner/work/fuelflux/fuelflux/src/backend.cpp
FN:104,120,_ZN8fuelflux12_GLOBAL__N_123IsPppInterfaceAvailableEv
FN:122,220,_ZN8fuelflux12_GLOBAL__N_111IsLocalhostERKNSt7__cxx1112basic_stringIcSt11char_traitsIcESaIcEEE
FN:126,126,_ZZN8fuelflux12_GLOBAL__N_111IsLocalhostERKNSt7__cxx1112basic_stringIcSt11char_traitsIcESaIcEEEENKUlhE_clEh
FN:222,227,_ZN8fuelflux12_GLOBAL__N_124ShouldBindToPppInterfaceERKNSt7__cxx1112basic_stringIcSt11char_traitsIcESaIcEEE
FN:232,271,_ZN8fuelflux12_GLOBAL__N_118ExtractPortFromUrlERKNSt7__cxx1112basic_stringIcSt11char_traitsIcESaIcEEE
FN:274,277,_ZN8fuelflux12_GLOBAL__N_116GetCaresResolverEv
FN:286,306,_ZN8fuelflux12_GLOBAL__N_118SetupDnsResolutionEPvRNS0_9CurlSlistERKNSt7__cxx1112basic_stringIcSt11char_traitsIcESaIcEEESB_SB_
FN:313,320,_ZN8fuelflux7BackendC2ERKNSt7__cxx1112basic_stringIcSt11char_traitsIcESaIcEEES8_St10shared_ptrINS_14MessageStorageEE
FN:322,325,_ZN8fuelflux7BackendD0Ev
FN:322,325,_ZN8fuelflux7BackendD2Ev
FN:327,483,_ZN8fuelflux7Backend18HttpRequestWrapperERKNSt7__cxx1112basic_stringIcSt11char_traitsIcESaIcEEES8_RKN8nlohmann16json_abi_v3_11_310basic_jsonISt3mapSt6vectorS6_blmdSaNSA_14adl_serializerESD_IhSaIhEEvEEb
FN:36,42,_ZN8fuelflux12_GLOBAL__N_116InitCurlGloballyEv
FN:47,47,_ZN8fuelflux12_GLOBAL__N_110CurlHandleC2Ev
FN:48,52,_ZN8fuelflux12_GLOBAL__N_110CurlHandleD2Ev
FN:486,639,_ZN8fuelflux7Backend18HttpRequestWrapperERKNSt7__cxx1112basic_stringIcSt11char_traitsIcESaIcEEES8_RKN8nlohmann16json_abi_v3_11_310basic_jsonISt3mapSt6vectorS6_blmdSaNSA_14adl_serializerESD_IhSaIhEEvEES8_
FN:58,58,_ZNK8fuelflux12_GLOBAL__N_110CurlHandle3getEv
FN:59,59,_ZNK8fuelflux12_GLOBAL__N_110CurlHandlecvbEv
FN:642,733,_ZN8fuelflux7Backend20SendAsyncDeauthorizeERKNSt7__cxx1112basic_stringIcSt11char_traitsIcESaIcEEES8_
FN:68,68,_ZN8fuelflux12_GLOBAL__N_19CurlSlistC2Ev
FN:69,73,_ZN8fuelflux12_GLOBAL__N_19CurlSlistD2Ev
FN:736,738,_ZN8fuelflux7Backend27SendAsyncDeauthorizeRequestERKNSt7__cxx1112basic_stringIcSt11char_traitsIcESaIcEEE
FN:79,85,_ZN8fuelflux12_GLOBAL__N_19CurlSlist6appendEPKc
FN:87,87,_ZNK8fuelflux12_GLOBAL__N_19CurlSlist3getEv
FN:94,99,_ZN8fuelflux12_GLOBAL__N_113WriteCallbackEPvmmS1_
FNDA:0,_ZN8fuelflux12_GLOBAL__N_123IsPppInterfaceAvailableEv
FNDA:176,_ZN8fuelflux12_GLOBAL__N_111IsLocalhostERKNSt7__cxx1112basic_stringIcSt11char_traitsIcESaIcEEE
FNDA:1584,_ZZN8fuelflux12_GLOBAL__N_111IsLocalhostERKNSt7__cxx1112basic_stringIcSt11char_traitsIcESaIcEEEENKUlhE_clEh
FNDA:100,_ZN8fuelflux12_GLOBAL__N_124ShouldBindToPppInterfaceERKNSt7__cxx1112basic_stringIcSt11char_traitsIcESaIcEEE
FNDA:0,_ZN8fuelflux12_GLOBAL__N_118ExtractPortFromUrlERKNSt7__cxx1112basic_stringIcSt11char_traitsIcESaIcEEE
FNDA:0,_ZN8fuelflux12_GLOBAL__N_116GetCaresResolverEv
FNDA:0,_ZN8fuelflux12_GLOBAL__N_118SetupDnsResolutionEPvRNS0_9CurlSlistERKNSt7__cxx1112basic_stringIcSt11char_traitsIcESaIcEEESB_SB_
FNDA:27,_ZN8fuelflux7BackendC2ERKNSt7__cxx1112basic_stringIcSt11char_traitsIcESaIcEEES8_St10shared_ptrINS_14MessageStorageEE
FNDA:0,_ZN8fuelflux7BackendD0Ev
FNDA:27,_ZN8fuelflux7BackendD2Ev
FNDA:76,_ZN8fuelflux7Backend18HttpRequestWrapperERKNSt7__cxx1112basic_stringIcSt11char_traitsIcESaIcEEES8_RKN8nlohmann16json_abi_v3_11_310basic_jsonISt3mapSt6vectorS6_blmdSaNSA_14adl_serializerESD_IhSaIhEEvEEb
FNDA:27,_ZN8fuelflux12_GLOBAL__N_116InitCurlGloballyEv
FNDA:100,_ZN8fuelflux12_GLOBAL__N_110CurlHandleC2Ev
FNDA:100,_ZN8fuelflux12_GLOBAL__N_110CurlHandleD2Ev
FNDA:0,_ZN8fuelflux7Backend18HttpRequestWrapperERKNSt7__cxx1112basic_stringIcSt11char_traitsIcESaIcEEES8_RKN8nlohmann16json_abi_v3_11_310basic_jsonISt3mapSt6vectorS6_blmdSaNSA_14adl_serializerESD_IhSaIhEEvEES8_
FNDA:1298,_ZNK8fuelflux12_GLOBAL__N_110CurlHandle3getEv
FNDA:100,_ZNK8fuelflux12_GLOBAL__N_110CurlHandlecvbEv
FNDA:24,_ZN8fuelflux7Backend20SendAsyncDeauthorizeERKNSt7__cxx1112basic_stringIcSt11char_traitsIcESaIcEEES8_
FNDA:200,_ZN8fuelflux12_GLOBAL__N_19CurlSlistC2Ev
FNDA:200,_ZN8fuelflux12_GLOBAL__N_19CurlSlistD2Ev
FNDA:24,_ZN8fuelflux7Backend27SendAsyncDeauthorizeRequestERKNSt7__cxx1112basic_stringIcSt11char_traitsIcESaIcEEE
FNDA:228,_ZN8fuelflux12_GLOBAL__N_19CurlSlist6appendEPKc
FNDA:100,_ZNK8fuelflux12_GLOBAL__N_19CurlSlist3getEv
FNDA:98,_ZN8fuelflux12_GLOBAL__N_113WriteCallbackEPvmmS1_
FNF:24
FNH:18
DA:36,27
DA:37,27
DA:38,27
DA:39,0
DA:40,0
DA:42,27
DA:47,100
DA:48,100
DA:49,100
DA:50,100
DA:52,100
DA:58,1298
DA:59,100
DA:68,200
DA:69,200
DA:70,200
DA:71,100
DA:73,200
DA:79,228
DA:80,228
DA:81,228
DA:82,0
DA:84,228
DA:85,228
DA:87,100
DA:94,98
DA:95,98
DA:96,98
DA:97,98
DA:98,98
DA:104,0
DA:105,0
DA:106,0
DA:107,0
DA:108,0
DA:111,0
DA:112,0
DA:113,0
DA:114,0
DA:115,0
DA:118,0
DA:119,0
DA:122,176
DA:124,176
DA:125,176
DA:126,1584
DA:127,176
DA:128,0
DA:133,176
DA:134,176
DA:138,0
DA:139,0
DA:146,0
DA:148,0
DA:149,0
DA:150,0
DA:152,0
DA:153,0
DA:154,0
DA:155,0
DA:157,0
DA:160,0
DA:161,0
DA:162,0
DA:164,0
DA:165,0
DA:166,0
DA:169,0
DA:170,0
DA:171,0
DA:172,0
DA:173,0
DA:174,0
DA:176,0
DA:177,0
DA:180,0
DA:186,0
DA:188,0
DA:189,0
DA:190,0
DA:191,0
DA:192,0
DA:196,0
DA:199,0
DA:200,0
DA:201,0
DA:203,0
DA:204,0
DA:205,0
DA:207,0
DA:210,0
DA:213,0
DA:214,0
DA:217,0
DA:219,0
DA:220,176
DA:222,100
DA:223,100
DA:224,100
DA:226,0
DA:232,0
DA:234,0
DA:235,0
DA:236,0
DA:239,0
DA:242,0
DA:243,0
DA:244,0
DA:245,0
DA:246,0
DA:251,0
DA:252,0
DA:254,0
DA:256,0
DA:257,0
DA:258,0
DA:260,0
DA:261,0
DA:263,0
DA:264,0
DA:267,0
DA:268,0
DA:270,0
DA:271,0
DA:274,0
DA:275,0
DA:276,0
DA:286,0
DA:289,0
DA:290,0
DA:293,0
DA:295,0
DA:296,0
DA:298,0
DA:300,0
DA:301,0
DA:302,0
DA:303,0
DA:304,0
DA:306,0
DA:313,27
DA:314,27
DA:315,27
DA:318,27
DA:319,54
DA:320,27
DA:322,27
DA:325,27
DA:327,76
DA:331,76
DA:333,76
DA:336,76
DA:337,76
DA:338,0
DA:339,0
DA:340,0
DA:344,76
DA:345,76
DA:348,76
DA:349,152
DA:352,76
DA:355,76
DA:358,76
DA:359,76
DA:365,76
DA:366,76
DA:373,76
DA:377,76
DA:380,76
DA:382,76
DA:383,0
DA:384,0
DA:391,0
DA:394,76
DA:395,228
DA:397,0
DA:403,76
DA:404,76
DA:405,76
DA:407,76
DA:408,4
DA:409,4
DA:410,4
DA:411,4
DA:412,4
DA:413,4
DA:415,76
DA:418,76
DA:419,76
DA:420,76
DA:421,76
DA:422,0
DA:423,0
DA:425,0
DA:426,0
DA:427,0
DA:431,76
DA:433,76
DA:434,1
DA:435,1
DA:436,2
DA:437,1
DA:438,1
DA:439,1
DA:442,75
DA:443,75
DA:445,150
DA:448,75
DA:450,71
DA:453,71
DA:454,3
DA:458,71
DA:460,3
DA:461,6
DA:462,3
DA:463,3
DA:464,3
DA:467,68
DA:468,71
DA:471,4
DA:472,4
DA:473,8
DA:474,4
DA:475,4
DA:476,4
DA:477,76
DA:478,0
DA:479,0
DA:480,0
DA:481,0
DA:482,0
DA:483,76
DA:486,0
DA:490,0
DA:492,0
DA:495,0
DA:496,0
DA:497,0
DA:498,0
DA:499,0
DA:503,0
DA:504,0
DA:507,0
DA:508,0
DA:511,0
DA:514,0
DA:517,0
DA:518,0
DA:524,0
DA:525,0
DA:532,0
DA:536,0
DA:539,0
DA:541,0
DA:542,0
DA:543,0
DA:550,0
DA:553,0
DA:554,0
DA:556,0
DA:562,0
DA:563,0
DA:564,0
DA:566,0
DA:567,0
DA:568,0
DA:569,0
DA:571,0
DA:574,0
DA:575,0
DA:576,0
DA:577,0
DA:578,0
DA:579,0
DA:581,0
DA:582,0
DA:583,0
DA:587,0
DA:589,0
DA:590,0
DA:591,0
DA:592,0
DA:593,0
DA:594,0
DA:595,0
DA:598,0
DA:599,0
DA:601,0
DA:604,0
DA:606,0
DA:609,0
DA:610,0
DA:614,0
DA:616,0
DA:617,0
DA:618,0
DA:619,0
DA:620,0
DA:623,0
DA:624,0
DA:627,0
DA:628,0
DA:629,0
DA:630,0
DA:631,0
DA:632,0
DA:633,0
DA:634,0
DA:635,0
DA:636,0
DA:637,0
DA:638,0
DA:639,0
DA:642,24
DA:644,24
DA:645,24
DA:646,0
DA:647,0
DA:651,24
DA:652,24
DA:653,48
DA:655,24
DA:658,24
DA:661,24
DA:664,24
DA:665,24
DA:669,24
DA:670,24
DA:677,24
DA:681,24
DA:684,24
DA:686,24
DA:687,0
DA:688,0
DA:692,0
DA:698,24
DA:699,24
DA:700,24
DA:702,24
DA:703,24
DA:704,24
DA:705,24
DA:707,24
DA:710,24
DA:711,24
DA:712,24
DA:715,24
DA:717,24
DA:718,3
DA:720,23
DA:721,23
DA:722,46
DA:723,23
DA:724,44
DA:726,3
DA:729,24
DA:730,0
DA:731,0
DA:732,0
DA:733,24
DA:736,24
DA:737,24
DA:738,24
LF:363
LH:155
end_of_record
TN:
SF:/home/runner/work/fuelflux/fuelflux/src/backend_base.cpp
FN:122,189,_ZN8fuelflux11BackendBase11DeauthorizeEv
FN:149,159,_ZZN8fuelflux11BackendBase11DeauthorizeEvENKUlvE_clEv
FN:191,269,_ZN8fuelflux11BackendBase6RefuelEid
FN:208,208,_ZZN8fuelflux11BackendBase6RefuelEidENKUlRKNS_15BackendTankInfoEE_clES3_
FN:21,24,_ZN8fuelflux11BackendBase22GetDeauthorizeExecutorEv
FN:26,30,_ZN8fuelflux11BackendBaseC2ENSt7__cxx1112basic_stringIcSt11char_traitsIcESaIcEEESt10shared_ptrINS_14MessageStorageEE
FN:271,350,_ZN8fuelflux11BackendBase6IntakeEidNS_15IntakeDirectionE
FN:288,288,_ZZN8fuelflux11BackendBase6IntakeEidNS_15IntakeDirectionEENKUlRKNS_15BackendTankInfoEE_clES4_
FN:32,120,_ZN8fuelflux11BackendBase9AuthorizeERKNSt7__cxx1112basic_stringIcSt11char_traitsIcESaIcEEE
FN:352,384,_ZN8fuelflux11BackendBase13RefuelPayloadERKNSt7__cxx1112basic_stringIcSt11char_traitsIcESaIcEEE
FN:386,418,_ZN8fuelflux11BackendBase13IntakePayloadERKNSt7__cxx1112basic_stringIcSt11char_traitsIcESaIcEEE
FNDA:53,_ZN8fuelflux11BackendBase11DeauthorizeEv
FNDA:50,_ZZN8fuelflux11BackendBase11DeauthorizeEvENKUlvE_clEv
FNDA:6,_ZN8fuelflux11BackendBase6RefuelEid
FNDA:6,_ZZN8fuelflux11BackendBase6RefuelEidENKUlRKNS_15BackendTankInfoEE_clES3_
FNDA:50,_ZN8fuelflux11BackendBase22GetDeauthorizeExecutorEv
FNDA:27,_ZN8fuelflux11BackendBaseC2ENSt7__cxx1112basic_stringIcSt11char_traitsIcESaIcEEESt10shared_ptrINS_14MessageStorageEE
FNDA:6,_ZN8fuelflux11BackendBase6IntakeEidNS_15IntakeDirectionE
FNDA:4,_ZZN8fuelflux11BackendBase6IntakeEidNS_15IntakeDirectionEENKUlRKNS_15BackendTankInfoEE_clES4_
FNDA:73,_ZN8fuelflux11BackendBase9AuthorizeERKNSt7__cxx1112basic_stringIcSt11char_traitsIcESaIcEEE
FNDA:0,_ZN8fuelflux11BackendBase13RefuelPayloadERKNSt7__cxx1112basic_stringIcSt11char_traitsIcESaIcEEE
FNDA:0,_ZN8fuelflux11BackendBase13IntakePayloadERKNSt7__cxx1112basic_stringIcSt11char_traitsIcESaIcEEE
FNF:11
FNH:9
DA:21,50
DA:22,50
DA:23,50
DA:26,27
DA:27,27
DA:28,54
DA:30,27
DA:32,73
DA:34,73
DA:35,2
DA:36,1
DA:37,1
DA:40,144
DA:42,72
DA:43,72
DA:44,72
DA:46,288
DA:54,72
DA:55,72
DA:56,14
DA:57,7
DA:58,7
DA:61,65
DA:62,1
DA:63,2
DA:64,1
DA:67,64
DA:68,0
DA:69,0
DA:70,0
DA:72,64
DA:74,64
DA:75,0
DA:76,0
DA:77,0
DA:79,64
DA:81,64
DA:82,64
DA:83,60
DA:86,64
DA:87,64
DA:88,60
DA:91,64
DA:92,64
DA:93,138
DA:94,74
DA:95,74
DA:96,74
DA:97,74
DA:98,74
DA:101,64
DA:102,64
DA:103,64
DA:104,64
DA:105,64
DA:106,64
DA:107,64
DA:109,128
DA:114,64
DA:115,72
DA:116,0
DA:117,0
DA:118,0
DA:119,0
DA:122,53
DA:124,53
DA:125,2
DA:126,1
DA:127,1
DA:130,52
DA:133,52
DA:137,52
DA:138,52
DA:139,52
DA:140,52
DA:141,52
DA:142,52
DA:143,52
DA:148,52
DA:149,50
DA:151,50
DA:154,22
DA:155,0
DA:156,0
DA:157,0
DA:158,50
DA:159,50
DA:161,50
DA:162,0
DA:164,52
DA:168,2
DA:169,0
DA:170,0
DA:171,0
DA:172,2
DA:174,52
DA:175,52
DA:176,52
DA:178,0
DA:179,0
DA:180,0
DA:181,0
DA:182,0
DA:183,0
DA:185,0
DA:186,0
DA:187,0
DA:188,0
DA:191,6
DA:193,6
DA:194,1
DA:195,1
DA:196,1
DA:199,5
DA:200,0
DA:201,0
DA:202,0
DA:205,5
DA:208,6
DA:209,5
DA:210,2
DA:211,1
DA:212,1
DA:215,4
DA:216,2
DA:217,1
DA:218,1
DA:221,3
DA:222,2
DA:223,1
DA:224,1
DA:227,2
DA:228,2
DA:229,2
DA:230,2
DA:232,2
DA:233,2
DA:234,2
DA:235,2
DA:237,4
DA:239,8
DA:240,2
DA:241,2
DA:242,2
DA:243,1
DA:244,0
DA:245,0
DA:246,0
DA:248,0
DA:251,1
DA:252,1
DA:255,1
DA:256,1
DA:257,0
DA:259,1
DA:260,1
DA:261,1
DA:262,2
DA:263,0
DA:264,0
DA:265,0
DA:267,0
DA:268,0
DA:271,6
DA:273,6
DA:274,1
DA:275,1
DA:276,1
DA:279,5
DA:280,2
DA:281,1
DA:282,1
DA:285,4
DA:288,4
DA:289,4
DA:290,2
DA:291,1
DA:292,1
DA:295,3
DA:296,2
DA:297,1
DA:298,1
DA:301,2
DA:302,0
DA:303,0
DA:304,0
DA:307,2
DA:308,2
DA:309,2
DA:310,2
DA:312,2
DA:313,2
DA:314,2
DA:315,2
DA:316,2
DA:318,4
DA:324,8
DA:325,2
DA:326,2
DA:327,2
DA:328,1
DA:329,0
DA:330,0
DA:331,0
DA:333,0
DA:336,1
DA:337,1
DA:340,1
DA:341,1
DA:342,1
DA:343,2
DA:344,0
DA:345,0
DA:346,0
DA:348,0
DA:349,0
DA:352,0
DA:354,0
DA:355,0
DA:356,0
DA:357,0
DA:360,0
DA:361,0
DA:362,0
DA:363,0
DA:364,0
DA:367,0
DA:368,0
DA:369,0
DA:370,0
DA:371,0
DA:372,0
DA:375,0
DA:376,0
DA:377,0
DA:378,0
DA:379,0
DA:380,0
DA:382,0
DA:383,0
DA:386,0
DA:388,0
DA:389,0
DA:390,0
DA:391,0
DA:394,0
DA:395,0
DA:396,0
DA:397,0
DA:398,0
DA:401,0
DA:402,0
DA:403,0
DA:404,0
DA:405,0
DA:406,0
DA:409,0
DA:410,0
DA:411,0
DA:412,0
DA:413,0
DA:414,0
DA:416,0
DA:417,0
LF:264
LH:164
end_of_record
TN:
SF:/home/runner/work/fuelflux/fuelflux/src/backlog_worker.cpp
FN:11,17,_ZN8fuelflux13BacklogWorkerC2ESt10shared_ptrINS_14MessageStorageEES1_INS_8IBackendEENSt6chrono8durationIlSt5ratioILl1ELl1000EEEE
FN:19,21,_ZN8fuelflux13BacklogWorkerD2Ev
FN:23,28,_ZN8fuelflux13BacklogWorker5StartEv
FN:30,38,_ZN8fuelflux13BacklogWorker4StopEv
FN:40,42,_ZNK8fuelflux13BacklogWorker9IsRunningEv
FN:44,50,_ZN8fuelflux13BacklogWorker11SetIntervalENSt6chrono8durationIlSt5ratioILl1ELl1000EEEE
FN:52,63,_ZN8fuelflux13BacklogWorker7RunLoopEv
FN:60,60,_ZZN8fuelflux13BacklogWorker7RunLoopEvENKUlvE_clEv
FN:65,76,_ZN8fuelflux13BacklogWorker11ProcessOnceEv
FN:78,88,_ZN8fuelflux13BacklogWorker13HandleFailureERKNS_13StoredMessageE
FN:90,112,_ZN8fuelflux13BacklogWorker14ProcessMessageERKNS_13StoredMessageE
FNDA:3,_ZN8fuelflux13BacklogWorkerC2ESt10shared_ptrINS_14MessageStorageEES1_INS_8IBackendEENSt6chrono8durationIlSt5ratioILl1ELl1000EEEE
FNDA:3,_ZN8fuelflux13BacklogWorkerD2Ev
FNDA:0,_ZN8fuelflux13BacklogWorker5StartEv
FNDA:3,_ZN8fuelflux13BacklogWorker4StopEv
FNDA:0,_ZNK8fuelflux13BacklogWorker9IsRunningEv
FNDA:0,_ZN8fuelflux13BacklogWorker11SetIntervalENSt6chrono8durationIlSt5ratioILl1ELl1000EEEE
FNDA:0,_ZN8fuelflux13BacklogWorker7RunLoopEv
FNDA:0,_ZZN8fuelflux13BacklogWorker7RunLoopEvENKUlvE_clEv
FNDA:3,_ZN8fuelflux13BacklogWorker11ProcessOnceEv
FNDA:2,_ZN8fuelflux13BacklogWorker13HandleFailureERKNS_13StoredMessageE
FNDA:3,_ZN8fuelflux13BacklogWorker14ProcessMessageERKNS_13StoredMessageE
FNF:11
FNH:6
DA:11,3
DA:13,3
DA:14,3
DA:15,3
DA:16,3
DA:17,3
DA:19,3
DA:20,3
DA:21,3
DA:23,0
DA:24,0
DA:25,0
DA:27,0
DA:30,3
DA:31,3
DA:32,3
DA:34,0
DA:35,0
DA:36,0
DA:40,0
DA:41,0
DA:44,0
DA:46,0
DA:47,0
DA:48,0
DA:49,0
DA:50,0
DA:52,0
DA:53,0
DA:54,0
DA:55,0
DA:56,0
DA:57,0
DA:59,0
DA:60,0
DA:62,0
DA:63,0
DA:65,3
DA:66,3
DA:67,0
DA:70,3
DA:71,3
DA:72,0
DA:75,3
DA:76,3
DA:78,2
DA:79,2
DA:80,1
DA:81,1
DA:84,2
DA:85,1
DA:86,1
DA:87,1
DA:90,3
DA:91,3
DA:92,1
DA:95,2
DA:96,2
DA:97,2
DA:99,0
DA:104,2
DA:106,2
DA:107,1
DA:110,1
DA:111,1
LF:65
LH:37
end_of_record
TN:
SF:/home/runner/work/fuelflux/fuelflux/src/bounded_executor.cpp
FN:10,29,_ZN8fuelflux15BoundedExecutorC2Emm
FN:31,33,_ZN8fuelflux15BoundedExecutorD2Ev
FN:35,48,_ZN8fuelflux15BoundedExecutor6SubmitESt8functionIFvvEE
FN:50,53,_ZNK8fuelflux15BoundedExecutor9QueueSizeEv
FN:55,65,_ZN8fuelflux15BoundedExecutor8ShutdownEv
FN:67,94,_ZN8fuelflux15BoundedExecutor12WorkerThreadEv
FN:72,72,_ZZN8fuelflux15BoundedExecutor12WorkerThreadEvENKUlvE_clEv
FNDA:6,_ZN8fuelflux15BoundedExecutorC2Emm
FNDA:6,_ZN8fuelflux15BoundedExecutorD2Ev
FNDA:68,_ZN8fuelflux15BoundedExecutor6SubmitESt8functionIFvvEE
FNDA:0,_ZNK8fuelflux15BoundedExecutor9QueueSizeEv
FNDA:10,_ZN8fuelflux15BoundedExecutor8ShutdownEv
FNDA:9,_ZN8fuelflux15BoundedExecutor12WorkerThreadEv
FNDA:80,_ZZN8fuelflux15BoundedExecutor12WorkerThreadEvENKUlvE_clEv
FNF:7
FNH:6
DA:10,6
DA:11,6
DA:12,6
DA:14,15
DA:15,9
DA:17,0
DA:20,0
DA:21,0
DA:22,0
DA:23,0
DA:24,0
DA:27,0
DA:28,0
DA:29,6
DA:31,6
DA:32,6
DA:33,6
DA:35,68
DA:37,68
DA:38,68
DA:39,1
DA:41,67
DA:42,1
DA:44,66
DA:45,68
DA:46,66
DA:47,66
DA:50,0
DA:51,0
DA:52,0
DA:53,0
DA:55,10
DA:56,10
DA:57,4
DA:59,6
DA:60,15
DA:61,9
DA:62,9
DA:67,9
DA:69,75
DA:71,75
DA:72,155
DA:74,75
DA:75,9
DA:78,66
DA:79,66
DA:80,66
DA:82,75
DA:84,66
DA:86,66
DA:87,1
DA:88,2
DA:89,1
DA:90,0
DA:91,0
DA:93,141
DA:94,9
LF:57
LH:43
end_of_record
TN:
SF:/home/runner/work/fuelflux/fuelflux/src/cares_resolver.cpp
FN:109,144,_ZN8fuelflux12_GLOBAL__N_112HostCallbackEPviiP7hostent
FN:149,196,_ZN8fuelflux22InitializeCaresLibraryEv
FN:168,171,_ZZN8fuelflux22InitializeCaresLibraryEvENKUlvE_clEv
FN:198,208,_ZN8fuelflux19CleanupCaresLibraryEv
FN:210,211,_ZN8fuelflux13CaresResolverC2Ev
FN:213,215,_ZN8fuelflux13CaresResolverC2ERKNSt7__cxx1112basic_stringIcSt11char_traitsIcESaIcEEESt8functionIFNSt6chrono10time_pointINSA_3_V212steady_clockENSA_8durationIlSt5ratioILl1ELl1000000000EEEEEEvEE
FN:217,218,_ZN8fuelflux13CaresResolverD2Ev
FN:220,223,_ZNK8fuelflux13CaresResolver31HasValidTargetedCacheForTestingEv
FN:225,231,_ZNK8fuelflux13CaresResolver29GetTargetedCachedIpForTestingB5cxx11Ev
FN:233,235,_ZNK8fuelflux13CaresResolver20IsBackendApiHostnameERKNSt7__cxx1112basic_stringIcSt11char_traitsIcESaIcEEE
FN:237,239,_ZNK8fuelflux13CaresResolver25HasValidBackendCacheEntryEv
FN:241,360,_ZN8fuelflux13CaresResolver7ResolveERKNSt7__cxx1112basic_stringIcSt11char_traitsIcESaIcEEES8_
FN:42,81,_ZN8fuelflux12_GLOBAL__N_111AresChannelC2ERKNSt7__cxx1112basic_stringIcSt11char_traitsIcESaIcEEE
FN:83,87,_ZN8fuelflux12_GLOBAL__N_111AresChannelD2Ev
FN:93,93,_ZNK8fuelflux12_GLOBAL__N_111AresChannel3getEv
FN:94,94,_ZNK8fuelflux12_GLOBAL__N_111AresChannel13isInitializedEv
FNDA:8,_ZN8fuelflux12_GLOBAL__N_112HostCallbackEPviiP7hostent
FNDA:107,_ZN8fuelflux22InitializeCaresLibraryEv
FNDA:0,_ZZN8fuelflux22InitializeCaresLibraryEvENKUlvE_clEv
FNDA:107,_ZN8fuelflux19CleanupCaresLibraryEv
FNDA:10,_ZN8fuelflux13CaresResolverC2Ev
FNDA:12,_ZN8fuelflux13CaresResolverC2ERKNSt7__cxx1112basic_stringIcSt11char_traitsIcESaIcEEESt8functionIFNSt6chrono10time_pointINSA_3_V212steady_clockENSA_8durationIlSt5ratioILl1ELl1000000000EEEEEEvEE
FNDA:12,_ZN8fuelflux13CaresResolverD2Ev
FNDA:5,_ZNK8fuelflux13CaresResolver31HasValidTargetedCacheForTestingEv
FNDA:2,_ZNK8fuelflux13CaresResolver29GetTargetedCachedIpForTestingB5cxx11Ev
FNDA:16,_ZNK8fuelflux13CaresResolver20IsBackendApiHostnameERKNSt7__cxx1112basic_stringIcSt11char_traitsIcESaIcEEE
FNDA:9,_ZNK8fuelflux13CaresResolver25HasValidBackendCacheEntryEv
FNDA:15,_ZN8fuelflux13CaresResolver7ResolveERKNSt7__cxx1112basic_stringIcSt11char_traitsIcESaIcEEES8_
FNDA:8,_ZN8fuelflux12_GLOBAL__N_111AresChannelC2ERKNSt7__cxx1112basic_stringIcSt11char_traitsIcESaIcEEE
FNDA:8,_ZN8fuelflux12_GLOBAL__N_111AresChannelD2Ev
FNDA:8,_ZNK8fuelflux12_GLOBAL__N_111AresChannel3getEv
FNDA:8,_ZNK8fuelflux12_GLOBAL__N_111AresChannel13isInitializedEv
FNF:16
FNH:15
DA:42,8
DA:44,8
DA:45,0
DA:46,0
DA:50,8
DA:51,8
DA:52,8
DA:54,8
DA:55,8
DA:56,0
DA:57,0
DA:61,8
DA:62,8
DA:63,8
DA:64,0
DA:66,0
DA:67,0
DA:68,0
DA:71,16
DA:75,8
DA:76,2
DA:77,6
DA:80,8
DA:81,8
DA:83,8
DA:84,8
DA:85,8
DA:87,8
DA:93,8
DA:94,8
DA:109,8
DA:112,8
DA:113,8
DA:114,8
DA:116,8
DA:117,2
DA:118,1
DA:121,7
DA:122,0
DA:123,0
DA:124,0
DA:129,7
DA:131,7
DA:132,7
DA:133,0
DA:134,0
DA:137,7
DA:138,7
DA:139,21
DA:141,0
DA:142,0
DA:149,107
DA:151,107
DA:152,107
DA:153,0
DA:157,107
DA:160,107
DA:161,107
DA:162,0
DA:166,107
DA:167,0
DA:168,0
DA:169,0
DA:170,0
DA:173,0
DA:174,0
DA:178,107
DA:181,107
DA:182,107
DA:183,107
DA:184,107
DA:185,107
DA:186,107
DA:187,107
DA:189,0
DA:190,0
DA:191,0
DA:192,0
DA:194,0
DA:196,107
DA:198,107
DA:201,107
DA:202,107
DA:205,107
DA:206,214
DA:208,107
DA:210,10
DA:211,10
DA:213,12
DA:214,12
DA:215,12
DA:217,12
DA:218,12
DA:220,5
DA:221,5
DA:222,10
DA:223,5
DA:225,2
DA:226,2
DA:227,2
DA:228,0
DA:230,2
DA:231,2
DA:233,16
DA:234,16
DA:237,9
DA:238,9
DA:241,15
DA:243,15
DA:250,15
DA:251,0
DA:252,0
DA:255,54
DA:262,25
DA:263,10
DA:264,12
DA:265,6
DA:268,9
DA:269,2
DA:270,1
DA:273,8
DA:274,8
DA:275,0
DA:276,0
DA:280,8
DA:281,8
DA:286,8
DA:287,8
DA:292,8
DA:294,8
DA:296,0
DA:297,0
DA:298,0
DA:299,0
DA:301,0
DA:304,0
DA:305,0
DA:307,0
DA:308,0
DA:310,0
DA:311,0
DA:315,0
DA:316,0
DA:317,0
DA:319,0
DA:320,0
DA:322,0
DA:323,0
DA:324,0
DA:326,0
DA:327,0
DA:329,0
DA:331,0
DA:332,0
DA:334,0
DA:337,0
DA:340,8
DA:341,0
DA:342,0
DA:345,8
DA:346,3
DA:347,2
DA:350,24
DA:354,7
DA:355,3
DA:356,9
DA:359,7
DA:360,15
LF:168
LH:107
end_of_record
TN:
SF:/home/runner/work/fuelflux/fuelflux/src/console_emulator.cpp
FN:101,110,_ZN8fuelflux12_GLOBAL__N_19ConsoleUi13renderDisplayERKSt5arrayINSt7__cxx1112basic_stringIcSt11char_traitsIcESaIcEEELm6EE
FN:112,119,_ZN8fuelflux12_GLOBAL__N_19ConsoleUi7logLineERKNSt7__cxx1112basic_stringIcSt11char_traitsIcESaIcEEE
FN:121,132,_ZN8fuelflux12_GLOBAL__N_19ConsoleUi8logBlockERKNSt7__cxx1112basic_stringIcSt11char_traitsIcESaIcEEE
FN:134,143,_ZN8fuelflux12_GLOBAL__N_19ConsoleUi12setInputModeEb
FN:145,151,_ZN8fuelflux12_GLOBAL__N_19ConsoleUi14setInputBufferERKNSt7__cxx1112basic_stringIcSt11char_traitsIcESaIcEEE
FN:167,167,_ZN8fuelflux12_GLOBAL__N_19ConsoleUiC2Ev
FN:169,180,_ZN8fuelflux12_GLOBAL__N_19ConsoleUi16initializeLockedEv
FN:182,191,_ZN8fuelflux12_GLOBAL__N_19ConsoleUi19appendLogLineLockedERKNSt7__cxx1112basic_stringIcSt11char_traitsIcESaIcEEE
FN:193,204,_ZN8fuelflux12_GLOBAL__N_19ConsoleUi19renderLogAreaLockedEv
FN:206,211,_ZN8fuelflux12_GLOBAL__N_19ConsoleUi17renderInputLockedEv
FN:213,219,_ZN8fuelflux12_GLOBAL__N_19ConsoleUi23moveCursorToInputLockedEv
FN:221,223,_ZN8fuelflux12_GLOBAL__N_19ConsoleUi7writeAtEiiRKNSt7__cxx1112basic_stringIcSt11char_traitsIcESaIcEEE
FN:226,228,_ZN8fuelflux12_GLOBAL__N_17logLineERKNSt7__cxx1112basic_stringIcSt11char_traitsIcESaIcEEE
FN:230,232,_ZN8fuelflux12_GLOBAL__N_18logBlockERKNSt7__cxx1112basic_stringIcSt11char_traitsIcESaIcEEE
FN:236,240,_ZN8fuelflux14ConsoleDisplayC2Ev
FN:242,244,_ZN8fuelflux14ConsoleDisplayD0Ev
FN:242,244,_ZN8fuelflux14ConsoleDisplayD2Ev
FN:246,252,_ZN8fuelflux14ConsoleDisplay10initializeEv
FN:254,258,_ZN8fuelflux14ConsoleDisplay8shutdownEv
FN:260,262,_ZNK8fuelflux14ConsoleDisplay11isConnectedEv
FN:264,268,_ZN8fuelflux14ConsoleDisplay11showMessageERKNS_14DisplayMessageE
FN:270,274,_ZN8fuelflux14ConsoleDisplay5clearEv
FN:276,278,_ZN8fuelflux14ConsoleDisplay12setBacklightEb
FN:280,292,_ZNK8fuelflux14ConsoleDisplay12printDisplayEv
FN:294,311,_ZNK8fuelflux14ConsoleDisplay11buildBorderB5cxx11Eb
FN:30,44,_ZN8fuelflux12_GLOBAL__N_114utf8CharLengthEh
FN:313,328,_ZNK8fuelflux14ConsoleDisplay7padLineERKNSt7__cxx1112basic_stringIcSt11char_traitsIcESaIcEEEm
FN:331,336,_ZN8fuelflux15ConsoleKeyboardC2Ev
FN:338,340,_ZN8fuelflux15ConsoleKeyboardD0Ev
FN:338,340,_ZN8fuelflux15ConsoleKeyboardD2Ev
FN:342,348,_ZN8fuelflux15ConsoleKeyboard10initializeEv
FN:350,356,_ZN8fuelflux15ConsoleKeyboard8shutdownEv
FN:358,360,_ZNK8fuelflux15ConsoleKeyboard11isConnectedEv
FN:362,365,_ZN8fuelflux15ConsoleKeyboard19setKeyPressCallbackESt8functionIFvNS_7KeyCodeEEE
FN:367,369,_ZN8fuelflux15ConsoleKeyboard11enableInputEb
FN:371,377,_ZN8fuelflux15ConsoleKeyboard9injectKeyEc
FN:379,392,_ZNK8fuelflux15ConsoleKeyboard17printKeyboardHelpEv
FN:395,399,_ZN8fuelflux17ConsoleCardReaderC2Ev
FN:401,403,_ZN8fuelflux17ConsoleCardReaderD0Ev
FN:401,403,_ZN8fuelflux17ConsoleCardReaderD2Ev
FN:405,408,_ZN8fuelflux17ConsoleCardReader10initializeEv
FN:410,412,_ZN8fuelflux17ConsoleCardReader8shutdownEv
FN:414,416,_ZNK8fuelflux17ConsoleCardReader11isConnectedEv
FN:418,421,_ZN8fuelflux17ConsoleCardReader24setCardPresentedCallbackESt8functionIFvRKNSt7__cxx1112basic_stringIcSt11char_traitsIcESaIcEEEEE
FN:423,425,_ZN8fuelflux17ConsoleCardReader13enableReadingEb
FN:427,438,_ZN8fuelflux17ConsoleCardReader21simulateCardPresentedERKNSt7__cxx1112basic_stringIcSt11char_traitsIcESaIcEEE
FN:441,445,_ZN8fuelflux11ConsolePumpC2Ev
FN:447,449,_ZN8fuelflux11ConsolePumpD0Ev
FN:447,449,_ZN8fuelflux11ConsolePumpD2Ev
FN:451,455,_ZN8fuelflux11ConsolePump10initializeEv
FN:457,460,_ZN8fuelflux11ConsolePump8shutdownEv
FN:46,62,_ZN8fuelflux12_GLOBAL__N_112utf8TruncateERKNSt7__cxx1112basic_stringIcSt11char_traitsIcESaIcEEEm
FN:462,464,_ZNK8fuelflux11ConsolePump11isConnectedEv
FN:466,474,_ZN8fuelflux11ConsolePump5startEv
FN:476,482,_ZN8fuelflux11ConsolePump4stopEv
FN:484,486,_ZNK8fuelflux11ConsolePump9isRunningEv
FN:488,491,_ZN8fuelflux11ConsolePump20setPumpStateCallbackESt8functionIFvbEE
FN:493,498,_ZN8fuelflux11ConsolePump17notifyStateChangeEv
FN:501,509,_ZN8fuelflux16ConsoleFlowMeterC2Ev
FN:511,513,_ZN8fuelflux16ConsoleFlowMeterD0Ev
FN:511,513,_ZN8fuelflux16ConsoleFlowMeterD2Ev
FN:515,518,_ZN8fuelflux16ConsoleFlowMeter10initializeEv
FN:520,527,_ZN8fuelflux16ConsoleFlowMeter8shutdownEv
FN:529,531,_ZNK8fuelflux16ConsoleFlowMeter11isConnectedEv
FN:533,542,_ZN8fuelflux16ConsoleFlowMeter16startMeasurementEv
FN:544,563,_ZN8fuelflux16ConsoleFlowMeter15stopMeasurementEv
FN:565,572,_ZN8fuelflux16ConsoleFlowMeter12resetCounterEv
FN:574,577,_ZNK8fuelflux16ConsoleFlowMeter16getCurrentVolumeEv
FN:579,582,_ZNK8fuelflux16ConsoleFlowMeter14getTotalVolumeEv
FN:584,587,_ZN8fuelflux16ConsoleFlowMeter15setFlowCallbackESt8functionIFvdEE
FN:589,606,_ZN8fuelflux16ConsoleFlowMeter12simulateFlowEd
FN:608,668,_ZN8fuelflux16ConsoleFlowMeter24simulationThreadFunctionEd
FN:64,75,_ZN8fuelflux12_GLOBAL__N_110utf8LengthERKNSt7__cxx1112basic_stringIcSt11char_traitsIcESaIcEEE
FN:670,680,_ZN8fuelflux16ConsoleFlowMeter16notifyFlowUpdateEv
FN:683,689,_ZN8fuelflux15ConsoleEmulatorC2Ev
FN:691,691,_ZN8fuelflux15ConsoleEmulatorD2Ev
FN:693,695,_ZN8fuelflux15ConsoleEmulator13createDisplayEv
FN:697,701,_ZN8fuelflux15ConsoleEmulator14createKeyboardEv
FN:703,707,_ZN8fuelflux15ConsoleEmulator16createCardReaderEv
FN:709,711,_ZN8fuelflux15ConsoleEmulator10createPumpEv
FN:713,717,_ZN8fuelflux15ConsoleEmulator15createFlowMeterEv
FN:719,723,_ZN8fuelflux15ConsoleEmulator11dispatchKeyEc
FN:725,770,_ZN8fuelflux15ConsoleEmulator20processKeyboardInputEcNS_11SystemStateE
FN:772,814,_ZNK8fuelflux15ConsoleEmulator12printWelcomeEv
FN:79,82,_ZN8fuelflux12_GLOBAL__N_19ConsoleUi8instanceEv
FN:816,830,_ZNK8fuelflux15ConsoleEmulator9printHelpEv
FN:832,855,_ZN8fuelflux15ConsoleEmulator14processCommandERKNSt7__cxx1112basic_stringIcSt11char_traitsIcESaIcEEE
FN:84,87,_ZN8fuelflux12_GLOBAL__N_19ConsoleUi10initializeEv
FN:857,863,_ZN8fuelflux15ConsoleEmulator12simulateCardERKNSt7__cxx1112basic_stringIcSt11char_traitsIcESaIcEEE
FN:865,872,_ZNK8fuelflux15ConsoleEmulator22printAvailableCommandsEv
FN:874,882,_ZN8fuelflux15ConsoleEmulator12setInputModeEb
FN:884,886,_ZNK8fuelflux15ConsoleEmulator7logLineERKNSt7__cxx1112basic_stringIcSt11char_traitsIcESaIcEEE
FN:888,890,_ZNK8fuelflux15ConsoleEmulator8logBlockERKNSt7__cxx1112basic_stringIcSt11char_traitsIcESaIcEEE
FN:89,99,_ZN8fuelflux12_GLOBAL__N_19ConsoleUi8shutdownEv
FN:892,894,_ZN8fuelflux15ConsoleEmulator24consumeModeSwitchRequestEv
FNDA:0,_ZN8fuelflux12_GLOBAL__N_19ConsoleUi13renderDisplayERKSt5arrayINSt7__cxx1112basic_stringIcSt11char_traitsIcESaIcEEELm6EE
FNDA:0,_ZN8fuelflux12_GLOBAL__N_19ConsoleUi7logLineERKNSt7__cxx1112basic_stringIcSt11char_traitsIcESaIcEEE
FNDA:0,_ZN8fuelflux12_GLOBAL__N_19ConsoleUi8logBlockERKNSt7__cxx1112basic_stringIcSt11char_traitsIcESaIcEEE
FNDA:0,_ZN8fuelflux12_GLOBAL__N_19ConsoleUi12setInputModeEb
FNDA:0,_ZN8fuelflux12_GLOBAL__N_19ConsoleUi14setInputBufferERKNSt7__cxx1112basic_stringIcSt11char_traitsIcESaIcEEE
FNDA:0,_ZN8fuelflux12_GLOBAL__N_19ConsoleUiC2Ev
FNDA:0,_ZN8fuelflux12_GLOBAL__N_19ConsoleUi16initializeLockedEv
FNDA:0,_ZN8fuelflux12_GLOBAL__N_19ConsoleUi19appendLogLineLockedERKNSt7__cxx1112basic_stringIcSt11char_traitsIcESaIcEEE
FNDA:0,_ZN8fuelflux12_GLOBAL__N_19ConsoleUi19renderLogAreaLockedEv
FNDA:0,_ZN8fuelflux12_GLOBAL__N_19ConsoleUi17renderInputLockedEv
FNDA:0,_ZN8fuelflux12_GLOBAL__N_19ConsoleUi23moveCursorToInputLockedEv
FNDA:0,_ZN8fuelflux12_GLOBAL__N_19ConsoleUi7writeAtEiiRKNSt7__cxx1112basic_stringIcSt11char_traitsIcESaIcEEE
FNDA:0,_ZN8fuelflux12_GLOBAL__N_17logLineERKNSt7__cxx1112basic_stringIcSt11char_traitsIcESaIcEEE
FNDA:0,_ZN8fuelflux12_GLOBAL__N_18logBlockERKNSt7__cxx1112basic_stringIcSt11char_traitsIcESaIcEEE
FNDA:0,_ZN8fuelflux14ConsoleDisplayC2Ev
FNDA:0,_ZN8fuelflux14ConsoleDisplayD0Ev
FNDA:0,_ZN8fuelflux14ConsoleDisplayD2Ev
FNDA:0,_ZN8fuelflux14ConsoleDisplay10initializeEv
FNDA:0,_ZN8fuelflux14ConsoleDisplay8shutdownEv
FNDA:0,_ZNK8fuelflux14ConsoleDisplay11isConnectedEv
FNDA:0,_ZN8fuelflux14ConsoleDisplay11showMessageERKNS_14DisplayMessageE
FNDA:0,_ZN8fuelflux14ConsoleDisplay5clearEv
FNDA:0,_ZN8fuelflux14ConsoleDisplay12setBacklightEb
FNDA:0,_ZNK8fuelflux14ConsoleDisplay12printDisplayEv
FNDA:0,_ZNK8fuelflux14ConsoleDisplay11buildBorderB5cxx11Eb
FNDA:0,_ZN8fuelflux12_GLOBAL__N_114utf8CharLengthEh
FNDA:0,_ZNK8fuelflux14ConsoleDisplay7padLineERKNSt7__cxx1112basic_stringIcSt11char_traitsIcESaIcEEEm
FNDA:0,_ZN8fuelflux15ConsoleKeyboardC2Ev
FNDA:0,_ZN8fuelflux15ConsoleKeyboardD0Ev
FNDA:0,_ZN8fuelflux15ConsoleKeyboardD2Ev
FNDA:0,_ZN8fuelflux15ConsoleKeyboard10initializeEv
FNDA:0,_ZN8fuelflux15ConsoleKeyboard8shutdownEv
FNDA:0,_ZNK8fuelflux15ConsoleKeyboard11isConnectedEv
FNDA:0,_ZN8fuelflux15ConsoleKeyboard19setKeyPressCallbackESt8functionIFvNS_7KeyCodeEEE
FNDA:0,_ZN8fuelflux15ConsoleKeyboard11enableInputEb
FNDA:0,_ZN8fuelflux15ConsoleKeyboard9injectKeyEc
FNDA:0,_ZNK8fuelflux15ConsoleKeyboard17printKeyboardHelpEv
FNDA:0,_ZN8fuelflux17ConsoleCardReaderC2Ev
FNDA:0,_ZN8fuelflux17ConsoleCardReaderD0Ev
FNDA:0,_ZN8fuelflux17ConsoleCardReaderD2Ev
FNDA:0,_ZN8fuelflux17ConsoleCardReader10initializeEv
FNDA:0,_ZN8fuelflux17ConsoleCardReader8shutdownEv
FNDA:0,_ZNK8fuelflux17ConsoleCardReader11isConnectedEv
FNDA:0,_ZN8fuelflux17ConsoleCardReader24setCardPresentedCallbackESt8functionIFvRKNSt7__cxx1112basic_stringIcSt11char_traitsIcESaIcEEEEE
FNDA:0,_ZN8fuelflux17ConsoleCardReader13enableReadingEb
FNDA:0,_ZN8fuelflux17ConsoleCardReader21simulateCardPresentedERKNSt7__cxx1112basic_stringIcSt11char_traitsIcESaIcEEE
FNDA:0,_ZN8fuelflux11ConsolePumpC2Ev
FNDA:0,_ZN8fuelflux11ConsolePumpD0Ev
FNDA:0,_ZN8fuelflux11ConsolePumpD2Ev
FNDA:0,_ZN8fuelflux11ConsolePump10initializeEv
FNDA:0,_ZN8fuelflux11ConsolePump8shutdownEv
FNDA:0,_ZN8fuelflux12_GLOBAL__N_112utf8TruncateERKNSt7__cxx1112basic_stringIcSt11char_traitsIcESaIcEEEm
FNDA:0,_ZNK8fuelflux11ConsolePump11isConnectedEv
FNDA:0,_ZN8fuelflux11ConsolePump5startEv
FNDA:0,_ZN8fuelflux11ConsolePump4stopEv
FNDA:0,_ZNK8fuelflux11ConsolePump9isRunningEv
FNDA:0,_ZN8fuelflux11ConsolePump20setPumpStateCallbackESt8functionIFvbEE
FNDA:0,_ZN8fuelflux11ConsolePump17notifyStateChangeEv
FNDA:0,_ZN8fuelflux16ConsoleFlowMeterC2Ev
FNDA:0,_ZN8fuelflux16ConsoleFlowMeterD0Ev
FNDA:0,_ZN8fuelflux16ConsoleFlowMeterD2Ev
FNDA:0,_ZN8fuelflux16ConsoleFlowMeter10initializeEv
FNDA:0,_ZN8fuelflux16ConsoleFlowMeter8shutdownEv
FNDA:0,_ZNK8fuelflux16ConsoleFlowMeter11isConnectedEv
FNDA:0,_ZN8fuelflux16ConsoleFlowMeter16startMeasurementEv
FNDA:0,_ZN8fuelflux16ConsoleFlowMeter15stopMeasurementEv
FNDA:0,_ZN8fuelflux16ConsoleFlowMeter12resetCounterEv
FNDA:0,_ZNK8fuelflux16ConsoleFlowMeter16getCurrentVolumeEv
FNDA:0,_ZNK8fuelflux16ConsoleFlowMeter14getTotalVolumeEv
FNDA:0,_ZN8fuelflux16ConsoleFlowMeter15setFlowCallbackESt8functionIFvdEE
FNDA:0,_ZN8fuelflux16ConsoleFlowMeter12simulateFlowEd
FNDA:0,_ZN8fuelflux16ConsoleFlowMeter24simulationThreadFunctionEd
FNDA:0,_ZN8fuelflux12_GLOBAL__N_110utf8LengthERKNSt7__cxx1112basic_stringIcSt11char_traitsIcESaIcEEE
FNDA:0,_ZN8fuelflux16ConsoleFlowMeter16notifyFlowUpdateEv
FNDA:0,_ZN8fuelflux15ConsoleEmulatorC2Ev
FNDA:0,_ZN8fuelflux15ConsoleEmulatorD2Ev
FNDA:0,_ZN8fuelflux15ConsoleEmulator13createDisplayEv
FNDA:0,_ZN8fuelflux15ConsoleEmulator14createKeyboardEv
FNDA:0,_ZN8fuelflux15ConsoleEmulator16createCardReaderEv
FNDA:0,_ZN8fuelflux15ConsoleEmulator10createPumpEv
FNDA:0,_ZN8fuelflux15ConsoleEmulator15createFlowMeterEv
FNDA:0,_ZN8fuelflux15ConsoleEmulator11dispatchKeyEc
FNDA:0,_ZN8fuelflux15ConsoleEmulator20processKeyboardInputEcNS_11SystemStateE
FNDA:0,_ZNK8fuelflux15ConsoleEmulator12printWelcomeEv
FNDA:0,_ZN8fuelflux12_GLOBAL__N_19ConsoleUi8instanceEv
FNDA:0,_ZNK8fuelflux15ConsoleEmulator9printHelpEv
FNDA:0,_ZN8fuelflux15ConsoleEmulator14processCommandERKNSt7__cxx1112basic_stringIcSt11char_traitsIcESaIcEEE
FNDA:0,_ZN8fuelflux12_GLOBAL__N_19ConsoleUi10initializeEv
FNDA:0,_ZN8fuelflux15ConsoleEmulator12simulateCardERKNSt7__cxx1112basic_stringIcSt11char_traitsIcESaIcEEE
FNDA:0,_ZNK8fuelflux15ConsoleEmulator22printAvailableCommandsEv
FNDA:0,_ZN8fuelflux15ConsoleEmulator12setInputModeEb
FNDA:0,_ZNK8fuelflux15ConsoleEmulator7logLineERKNSt7__cxx1112basic_stringIcSt11char_traitsIcESaIcEEE
FNDA:0,_ZNK8fuelflux15ConsoleEmulator8logBlockERKNSt7__cxx1112basic_stringIcSt11char_traitsIcESaIcEEE
FNDA:0,_ZN8fuelflux12_GLOBAL__N_19ConsoleUi8shutdownEv
FNDA:0,_ZN8fuelflux15ConsoleEmulator24consumeModeSwitchRequestEv
FNF:95
FNH:0
DA:30,0
DA:31,0
DA:32,0
DA:34,0
DA:35,0
DA:37,0
DA:38,0
DA:40,0
DA:41,0
DA:43,0
DA:46,0
DA:47,0
DA:48,0
DA:51,0
DA:52,0
DA:53,0
DA:54,0
DA:55,0
DA:56,0
DA:58,0
DA:59,0
DA:61,0
DA:64,0
DA:65,0
DA:66,0
DA:67,0
DA:68,0
DA:69,0
DA:71,0
DA:72,0
DA:74,0
DA:79,0
DA:80,0
DA:81,0
DA:84,0
DA:85,0
DA:86,0
DA:87,0
DA:89,0
DA:90,0
DA:91,0
DA:92,0
DA:94,0
DA:95,0
DA:97,0
DA:98,0
DA:99,0
DA:101,0
DA:102,0
DA:103,0
DA:104,0
DA:105,0
DA:107,0
DA:108,0
DA:109,0
DA:110,0
DA:112,0
DA:113,0
DA:114,0
DA:115,0
DA:116,0
DA:117,0
DA:118,0
DA:119,0
DA:121,0
DA:122,0
DA:123,0
DA:124,0
DA:125,0
DA:126,0
DA:127,0
DA:129,0
DA:130,0
DA:131,0
DA:132,0
DA:134,0
DA:135,0
DA:136,0
DA:137,0
DA:138,0
DA:139,0
DA:141,0
DA:142,0
DA:143,0
DA:145,0
DA:146,0
DA:147,0
DA:148,0
DA:149,0
DA:150,0
DA:151,0
DA:167,0
DA:169,0
DA:170,0
DA:171,0
DA:173,0
DA:174,0
DA:176,0
DA:177,0
DA:178,0
DA:179,0
DA:182,0
DA:183,0
DA:184,0
DA:186,0
DA:188,0
DA:189,0
DA:191,0
DA:193,0
DA:194,0
DA:195,0
DA:196,0
DA:197,0
DA:198,0
DA:199,0
DA:200,0
DA:202,0
DA:203,0
DA:204,0
DA:206,0
DA:207,0
DA:208,0
DA:209,0
DA:210,0
DA:211,0
DA:213,0
DA:214,0
DA:215,0
DA:216,0
DA:217,0
DA:218,0
DA:219,0
DA:221,0
DA:222,0
DA:223,0
DA:226,0
DA:227,0
DA:228,0
DA:230,0
DA:231,0
DA:232,0
DA:236,0
DA:237,0
DA:238,0
DA:240,0
DA:242,0
DA:243,0
DA:244,0
DA:246,0
DA:247,0
DA:248,0
DA:249,0
DA:250,0
DA:251,0
DA:254,0
DA:255,0
DA:256,0
DA:257,0
DA:258,0
DA:260,0
DA:261,0
DA:264,0
DA:265,0
DA:266,0
DA:267,0
DA:268,0
DA:270,0
DA:271,0
DA:272,0
DA:273,0
DA:274,0
DA:276,0
DA:277,0
DA:278,0
DA:280,0
DA:281,0
DA:285,0
DA:286,0
DA:287,0
DA:288,0
DA:290,0
DA:291,0
DA:292,0
DA:294,0
DA:295,0
DA:309,0
DA:313,0
DA:314,0
DA:315,0
DA:318,0
DA:319,0
DA:320,0
DA:321,0
DA:324,0
DA:325,0
DA:326,0
DA:327,0
DA:328,0
DA:331,0
DA:332,0
DA:333,0
DA:334,0
DA:336,0
DA:338,0
DA:339,0
DA:340,0
DA:342,0
DA:343,0
DA:344,0
DA:346,0
DA:347,0
DA:350,0
DA:351,0
DA:352,0
DA:353,0
DA:355,0
DA:356,0
DA:358,0
DA:359,0
DA:362,0
DA:363,0
DA:364,0
DA:365,0
DA:367,0
DA:368,0
DA:369,0
DA:371,0
DA:372,0
DA:373,0
DA:374,0
DA:375,0
DA:376,0
DA:377,0
DA:379,0
DA:380,0
DA:392,0
DA:395,0
DA:396,0
DA:397,0
DA:399,0
DA:401,0
DA:402,0
DA:403,0
DA:405,0
DA:406,0
DA:407,0
DA:410,0
DA:411,0
DA:412,0
DA:414,0
DA:415,0
DA:418,0
DA:419,0
DA:420,0
DA:421,0
DA:423,0
DA:424,0
DA:425,0
DA:427,0
DA:428,0
DA:429,0
DA:430,0
DA:433,0
DA:434,0
DA:435,0
DA:436,0
DA:438,0
DA:441,0
DA:442,0
DA:443,0
DA:445,0
DA:447,0
DA:448,0
DA:449,0
DA:451,0
DA:452,0
DA:453,0
DA:454,0
DA:457,0
DA:458,0
DA:459,0
DA:460,0
DA:462,0
DA:463,0
DA:466,0
DA:467,0
DA:469,0
DA:470,0
DA:471,0
DA:472,0
DA:476,0
DA:477,0
DA:478,0
DA:479,0
DA:480,0
DA:482,0
DA:484,0
DA:485,0
DA:488,0
DA:489,0
DA:490,0
DA:491,0
DA:493,0
DA:494,0
DA:495,0
DA:496,0
DA:498,0
DA:501,0
DA:502,0
DA:503,0
DA:504,0
DA:505,0
DA:506,0
DA:507,0
DA:509,0
DA:511,0
DA:512,0
DA:513,0
DA:515,0
DA:516,0
DA:517,0
DA:520,0
DA:521,0
DA:522,0
DA:523,0
DA:524,0
DA:526,0
DA:527,0
DA:529,0
DA:530,0
DA:533,0
DA:534,0
DA:537,0
DA:541,0
DA:544,0
DA:545,0
DA:546,0
DA:547,0
DA:550,0
DA:552,0
DA:553,0
DA:556,0
DA:560,0
DA:563,0
DA:565,0
DA:567,0
DA:568,0
DA:569,0
DA:571,0
DA:572,0
DA:574,0
DA:575,0
DA:576,0
DA:577,0
DA:579,0
DA:580,0
DA:581,0
DA:582,0
DA:584,0
DA:585,0
DA:586,0
DA:587,0
DA:589,0
DA:591,0
DA:592,0
DA:593,0
DA:597,0
DA:600,0
DA:603,0
DA:606,0
DA:608,0
DA:609,0
DA:610,0
DA:616,0
DA:618,0
DA:620,0
DA:622,0
DA:627,0
DA:628,0
DA:629,0
DA:632,0
DA:635,0
DA:639,0
DA:642,0
DA:645,0
DA:651,0
DA:652,0
DA:653,0
DA:654,0
DA:655,0
DA:658,0
DA:660,0
DA:668,0
DA:670,0
DA:673,0
DA:674,0
DA:675,0
DA:676,0
DA:677,0
DA:678,0
DA:680,0
DA:683,0
DA:684,0
DA:685,0
DA:686,0
DA:687,0
DA:689,0
DA:691,0
DA:693,0
DA:694,0
DA:697,0
DA:698,0
DA:699,0
DA:700,0
DA:701,0
DA:703,0
DA:704,0
DA:705,0
DA:706,0
DA:707,0
DA:709,0
DA:710,0
DA:713,0
DA:714,0
DA:715,0
DA:716,0
DA:717,0
DA:719,0
DA:720,0
DA:721,0
DA:723,0
DA:725,0
DA:726,0
DA:727,0
DA:729,0
DA:730,0
DA:732,0
DA:733,0
DA:734,0
DA:735,0
DA:736,0
DA:737,0
DA:738,0
DA:740,0
DA:741,0
DA:742,0
DA:743,0
DA:744,0
DA:746,0
DA:748,0
DA:749,0
DA:750,0
DA:751,0
DA:753,0
DA:756,0
DA:758,0
DA:759,0
DA:761,0
DA:762,0
DA:763,0
DA:767,0
DA:768,0
DA:770,0
DA:772,0
DA:774,0
DA:777,0
DA:780,0
DA:781,0
DA:782,0
DA:786,0
DA:787,0
DA:789,0
DA:790,0
DA:792,0
DA:793,0
DA:794,0
DA:795,0
DA:798,0
DA:799,0
DA:800,0
DA:801,0
DA:803,0
DA:804,0
DA:805,0
DA:810,0
DA:811,0
DA:812,0
DA:813,0
DA:814,0
DA:816,0
DA:817,0
DA:821,0
DA:822,0
DA:823,0
DA:824,0
DA:825,0
DA:826,0
DA:827,0
DA:828,0
DA:829,0
DA:830,0
DA:832,0
DA:833,0
DA:834,0
DA:835,0
DA:837,0
DA:838,0
DA:839,0
DA:841,0
DA:842,0
DA:843,0
DA:844,0
DA:845,0
DA:847,0
DA:849,0
DA:850,0
DA:851,0
DA:852,0
DA:853,0
DA:855,0
DA:857,0
DA:858,0
DA:859,0
DA:861,0
DA:863,0
DA:865,0
DA:869,0
DA:871,0
DA:872,0
DA:874,0
DA:875,0
DA:876,0
DA:877,0
DA:878,0
DA:880,0
DA:882,0
DA:884,0
DA:885,0
DA:886,0
DA:888,0
DA:889,0
DA:890,0
DA:892,0
DA:893,0
LF:544
LH:0
end_of_record
TN:
SF:/home/runner/work/fuelflux/fuelflux/src/controller.cpp
FN:123,149,_ZN8fuelflux10Controller3runEv
FN:133,133,_ZZN8fuelflux10Controller3runEvENKUlvE_clEv
FN:152,158,_ZN8fuelflux10Controller9postEventENS_5EventE
FN:161,163,_ZN8fuelflux10Controller10setDisplayESt10unique_ptrINS_11peripherals8IDisplayESt14default_deleteIS3_EE
FN:165,167,_ZN8fuelflux10Controller11setKeyboardESt10unique_ptrINS_11peripherals9IKeyboardESt14default_deleteIS3_EE
FN:169,171,_ZN8fuelflux10Controller13setCardReaderESt10unique_ptrINS_11peripherals11ICardReaderESt14default_deleteIS3_EE
FN:173,175,_ZN8fuelflux10Controller7setPumpESt10unique_ptrINS_11peripherals5IPumpESt14default_deleteIS3_EE
FN:177,179,_ZN8fuelflux10Controller12setFlowMeterESt10unique_ptrINS_11peripherals10IFlowMeterESt14default_deleteIS3_EE
FN:182,231,_ZN8fuelflux10Controller14handleKeyPressENS_7KeyCodeE
FN:20,22,_ZN8fuelflux10Controller20CreateDefaultBackendESt10shared_ptrINS_14MessageStorageEE
FN:233,238,_ZN8fuelflux10Controller19handleCardPresentedERKNSt7__cxx1112basic_stringIcSt11char_traitsIcESaIcEEE
FN:24,27,_ZN8fuelflux10Controller26CreateDefaultBackendSharedERKNSt7__cxx1112basic_stringIcSt11char_traitsIcESaIcEEESt10shared_ptrINS_14MessageStorageEE
FN:240,268,_ZN8fuelflux10Controller22handlePumpStateChangedEb
FN:270,281,_ZN8fuelflux10Controller16handleFlowUpdateEd
FN:284,289,_ZN8fuelflux10Controller13updateDisplayEv
FN:29,41,_ZN8fuelflux10ControllerC2ENSt7__cxx1112basic_stringIcSt11char_traitsIcESaIcEEESt10shared_ptrINS_8IBackendEE
FN:291,301,_ZN8fuelflux10Controller9showErrorERKNSt7__cxx1112basic_stringIcSt11char_traitsIcESaIcEEE
FN:303,313,_ZN8fuelflux10Controller11showMessageERKNSt7__cxx1112basic_stringIcSt11char_traitsIcESaIcEEES8_S8_S8_
FN:316,320,_ZN8fuelflux10Controller15startNewSessionEv
FN:322,335,_ZN8fuelflux10Controller17endCurrentSessionEv
FN:337,340,_ZN8fuelflux10Controller10clearInputEv
FN:342,345,_ZN8fuelflux10Controller16clearInputSilentEv
FN:347,352,_ZN8fuelflux10Controller15addDigitToInputEc
FN:354,359,_ZN8fuelflux10Controller15removeLastDigitEv
FN:361,364,_ZN8fuelflux10Controller11setMaxValueEv
FN:367,394,_ZN8fuelflux10Controller20requestAuthorizationERKNSt7__cxx1112basic_stringIcSt11char_traitsIcESaIcEEE
FN:397,407,_ZN8fuelflux10Controller10selectTankEi
FN:409,416,_ZNK8fuelflux10Controller11isTankValidEi
FN:419,439,_ZN8fuelflux10Controller11enterVolumeEd
FN:43,45,_ZN8fuelflux10ControllerD2Ev
FN:442,447,_ZN8fuelflux10Controller14startRefuelingEv
FN:449,454,_ZN8fuelflux10Controller13stopRefuelingEv
FN:456,472,_ZN8fuelflux10Controller17completeRefuelingEv
FN:47,70,_ZN8fuelflux10Controller10initializeEv
FN:475,478,_ZN8fuelflux10Controller15startFuelIntakeEv
FN:480,489,_ZN8fuelflux10Controller17enterIntakeVolumeEd
FN:491,495,_ZN8fuelflux10Controller21selectIntakeDirectionENS_15IntakeDirectionE
FN:497,508,_ZN8fuelflux10Controller23completeIntakeOperationEv
FN:511,515,_ZN8fuelflux10Controller20logRefuelTransactionERKNS_17RefuelTransactionE
FN:517,521,_ZN8fuelflux10Controller20logIntakeTransactionERKNS_17IntakeTransactionE
FN:524,528,_ZNK8fuelflux10Controller12formatVolumeB5cxx11Ed
FN:530,538,_ZNK8fuelflux10Controller20getCurrentTimeStringB5cxx11Ev
FN:540,542,_ZNK8fuelflux10Controller21getDeviceSerialNumberB5cxx11Ev
FN:544,549,_ZN8fuelflux10Controller17enableCardReadingEb
FN:552,580,_ZN8fuelflux10Controller24setupPeripheralCallbacksEv
FN:554,556,_ZZN8fuelflux10Controller24setupPeripheralCallbacksEvENKUlNS_7KeyCodeEE_clES1_
FN:561,563,_ZZN8fuelflux10Controller24setupPeripheralCallbacksEvENKUlRKNSt7__cxx1112basic_stringIcSt11char_traitsIcESaIcEEEE_clES8_
FN:570,572,_ZZN8fuelflux10Controller24setupPeripheralCallbacksEvENKUlbE_clEb
FN:576,578,_ZZN8fuelflux10Controller24setupPeripheralCallbacksEvENKUldE_clEd
FN:582,644,_ZN8fuelflux10Controller19processNumericInputEv
FN:646,652,_ZNK8fuelflux10Controller20parseVolumeFromInputEv
FN:654,660,_ZNK8fuelflux10Controller18parseTankFromInputEv
FN:662,670,_ZN8fuelflux10Controller16resetSessionDataEv
FN:672,722,_ZN8fuelflux10Controller21initializePeripheralsEv
FN:72,84,_ZN8fuelflux10Controller8shutdownEv
FN:724,730,_ZN8fuelflux10Controller19shutdownPeripheralsEv
FN:86,121,_ZN8fuelflux10Controller18reinitializeDeviceEv
FNDA:21,_ZN8fuelflux10Controller3runEv
FNDA:134,_ZZN8fuelflux10Controller3runEvENKUlvE_clEv
FNDA:79,_ZN8fuelflux10Controller9postEventENS_5EventE
FNDA:54,_ZN8fuelflux10Controller10setDisplayESt10unique_ptrINS_11peripherals8IDisplayESt14default_deleteIS3_EE
FNDA:54,_ZN8fuelflux10Controller11setKeyboardESt10unique_ptrINS_11peripherals9IKeyboardESt14default_deleteIS3_EE
FNDA:54,_ZN8fuelflux10Controller13setCardReaderESt10unique_ptrINS_11peripherals11ICardReaderESt14default_deleteIS3_EE
FNDA:54,_ZN8fuelflux10Controller7setPumpESt10unique_ptrINS_11peripherals5IPumpESt14default_deleteIS3_EE
FNDA:54,_ZN8fuelflux10Controller12setFlowMeterESt10unique_ptrINS_11peripherals10IFlowMeterESt14default_deleteIS3_EE
FNDA:27,_ZN8fuelflux10Controller14handleKeyPressENS_7KeyCodeE
FNDA:0,_ZN8fuelflux10Controller20CreateDefaultBackendESt10shared_ptrINS_14MessageStorageEE
FNDA:13,_ZN8fuelflux10Controller19handleCardPresentedERKNSt7__cxx1112basic_stringIcSt11char_traitsIcESaIcEEE
FNDA:0,_ZN8fuelflux10Controller26CreateDefaultBackendSharedERKNSt7__cxx1112basic_stringIcSt11char_traitsIcESaIcEEESt10shared_ptrINS_14MessageStorageEE
FNDA:10,_ZN8fuelflux10Controller22handlePumpStateChangedEb
FNDA:5,_ZN8fuelflux10Controller16handleFlowUpdateEd
FNDA:226,_ZN8fuelflux10Controller13updateDisplayEv
FNDA:54,_ZN8fuelflux10ControllerC2ENSt7__cxx1112basic_stringIcSt11char_traitsIcESaIcEEESt10shared_ptrINS_8IBackendEE
FNDA:13,_ZN8fuelflux10Controller9showErrorERKNSt7__cxx1112basic_stringIcSt11char_traitsIcESaIcEEE
FNDA:5,_ZN8fuelflux10Controller11showMessageERKNSt7__cxx1112basic_stringIcSt11char_traitsIcESaIcEEES8_S8_S8_
FNDA:1,_ZN8fuelflux10Controller15startNewSessionEv
FNDA:7,_ZN8fuelflux10Controller17endCurrentSessionEv
FNDA:32,_ZN8fuelflux10Controller10clearInputEv
FNDA:16,_ZN8fuelflux10Controller16clearInputSilentEv
FNDA:54,_ZN8fuelflux10Controller15addDigitToInputEc
FNDA:3,_ZN8fuelflux10Controller15removeLastDigitEv
FNDA:0,_ZN8fuelflux10Controller11setMaxValueEv
FNDA:16,_ZN8fuelflux10Controller20requestAuthorizationERKNSt7__cxx1112basic_stringIcSt11char_traitsIcESaIcEEE
FNDA:7,_ZN8fuelflux10Controller10selectTankEi
FNDA:20,_ZNK8fuelflux10Controller11isTankValidEi
FNDA:11,_ZN8fuelflux10Controller11enterVolumeEd
FNDA:54,_ZN8fuelflux10ControllerD2Ev
FNDA:4,_ZN8fuelflux10Controller14startRefuelingEv
FNDA:0,_ZN8fuelflux10Controller13stopRefuelingEv
FNDA:4,_ZN8fuelflux10Controller17completeRefuelingEv
FNDA:53,_ZN8fuelflux10Controller10initializeEv
FNDA:0,_ZN8fuelflux10Controller15startFuelIntakeEv
FNDA:2,_ZN8fuelflux10Controller17enterIntakeVolumeEd
FNDA:2,_ZN8fuelflux10Controller21selectIntakeDirectionENS_15IntakeDirectionE
FNDA:2,_ZN8fuelflux10Controller23completeIntakeOperationEv
FNDA:4,_ZN8fuelflux10Controller20logRefuelTransactionERKNS_17RefuelTransactionE
FNDA:2,_ZN8fuelflux10Controller20logIntakeTransactionERKNS_17IntakeTransactionE
FNDA:44,_ZNK8fuelflux10Controller12formatVolumeB5cxx11Ed
FNDA:139,_ZNK8fuelflux10Controller20getCurrentTimeStringB5cxx11Ev
FNDA:128,_ZNK8fuelflux10Controller21getDeviceSerialNumberB5cxx11Ev
FNDA:130,_ZN8fuelflux10Controller17enableCardReadingEb
FNDA:54,_ZN8fuelflux10Controller24setupPeripheralCallbacksEv
FNDA:0,_ZZN8fuelflux10Controller24setupPeripheralCallbacksEvENKUlNS_7KeyCodeEE_clES1_
FNDA:1,_ZZN8fuelflux10Controller24setupPeripheralCallbacksEvENKUlRKNSt7__cxx1112basic_stringIcSt11char_traitsIcESaIcEEEE_clES8_
FNDA:8,_ZZN8fuelflux10Controller24setupPeripheralCallbacksEvENKUlbE_clEb
FNDA:4,_ZZN8fuelflux10Controller24setupPeripheralCallbacksEvENKUldE_clEd
FNDA:8,_ZN8fuelflux10Controller19processNumericInputEv
FNDA:6,_ZNK8fuelflux10Controller20parseVolumeFromInputEv
FNDA:0,_ZNK8fuelflux10Controller18parseTankFromInputEv
FNDA:63,_ZN8fuelflux10Controller16resetSessionDataEv
FNDA:54,_ZN8fuelflux10Controller21initializePeripheralsEv
FNDA:133,_ZN8fuelflux10Controller8shutdownEv
FNDA:56,_ZN8fuelflux10Controller19shutdownPeripheralsEv
FNDA:1,_ZN8fuelflux10Controller18reinitializeDeviceEv
FNF:57
FNH:50
DA:20,0
DA:21,0
DA:24,0
DA:26,0
DA:29,54
DA:30,54
DA:31,54
DA:32,54
DA:33,54
DA:34,54
DA:35,54
DA:36,54
DA:37,54
DA:38,108
DA:40,54
DA:41,54
DA:43,54
DA:44,54
DA:45,54
DA:47,53
DA:48,106
DA:50,53
DA:51,53
DA:54,53
DA:57,53
DA:62,53
DA:63,53
DA:64,2
DA:65,2
DA:67,102
DA:69,53
DA:72,133
DA:73,133
DA:75,53
DA:77,53
DA:78,53
DA:81,53
DA:83,106
DA:86,1
DA:87,1
DA:88,1
DA:91,1
DA:92,1
DA:95,1
DA:96,1
DA:97,1
DA:98,1
DA:101,1
DA:104,1
DA:105,1
DA:106,1
DA:109,1
DA:111,1
DA:114,1
DA:115,1
DA:116,2
DA:118,0
DA:120,1
DA:123,21
DA:124,21
DA:126,113
DA:127,92
DA:128,92
DA:130,92
DA:131,92
DA:133,201
DA:135,92
DA:136,69
DA:137,69
DA:138,69
DA:140,92
DA:142,92
DA:143,69
DA:146,23
DA:149,21
DA:152,79
DA:154,79
DA:155,79
DA:156,79
DA:157,79
DA:158,79
DA:161,54
DA:162,54
DA:163,54
DA:165,54
DA:166,54
DA:167,54
DA:169,54
DA:170,54
DA:171,54
DA:173,54
DA:174,54
DA:175,54
DA:177,54
DA:178,54
DA:179,54
DA:182,27
DA:183,54
DA:186,27
DA:188,27
DA:190,27
DA:191,16
DA:202,16
DA:203,11
DA:204,11
DA:206,16
DA:207,16
DA:209,0
DA:211,0
DA:212,0
DA:215,0
DA:217,2
DA:218,2
DA:219,2
DA:221,8
DA:222,8
DA:223,8
DA:225,1
DA:226,1
DA:227,1
DA:231,27
DA:233,13
DA:234,26
DA:236,13
DA:237,13
DA:238,13
DA:240,10
DA:241,20
DA:243,10
DA:244,5
DA:245,5
DA:246,5
DA:251,5
DA:252,5
DA:253,0
DA:254,0
DA:255,5
DA:256,0
DA:258,10
DA:261,5
DA:262,5
DA:263,5
DA:264,5
DA:266,5
DA:268,10
DA:270,5
DA:271,5
DA:274,5
DA:275,4
DA:276,4
DA:280,5
DA:281,5
DA:284,226
DA:285,226
DA:287,226
DA:288,226
DA:289,226
DA:291,13
DA:292,13
DA:293,13
DA:294,13
DA:295,13
DA:296,13
DA:297,13
DA:298,13
DA:299,13
DA:300,13
DA:301,13
DA:303,5
DA:305,5
DA:306,5
DA:307,5
DA:308,5
DA:309,5
DA:310,5
DA:311,5
DA:312,5
DA:313,5
DA:316,1
DA:317,1
DA:318,1
DA:319,1
DA:320,1
DA:322,7
DA:323,7
DA:324,7
DA:325,7
DA:326,0
DA:328,7
DA:329,7
DA:331,7
DA:332,0
DA:334,7
DA:335,7
DA:337,32
DA:338,32
DA:339,32
DA:340,32
DA:342,16
DA:343,16
DA:345,16
DA:347,54
DA:348,54
DA:349,49
DA:350,49
DA:352,54
DA:354,3
DA:355,3
DA:356,3
DA:357,3
DA:359,3
DA:361,0
DA:362,0
DA:363,0
DA:364,0
DA:367,16
DA:368,16
DA:369,0
DA:370,0
DA:371,0
DA:375,16
DA:376,10
DA:377,10
DA:378,10
DA:379,10
DA:381,10
DA:382,20
DA:384,10
DA:385,10
DA:388,10
DA:390,6
DA:392,6
DA:397,7
DA:398,7
DA:399,7
DA:401,7
DA:402,2
DA:404,5
DA:407,7
DA:409,20
DA:410,20
DA:411,7
DA:412,7
DA:415,13
DA:419,11
DA:421,11
DA:422,6
DA:423,6
DA:424,6
DA:428,5
DA:429,4
DA:430,0
DA:431,0
DA:432,0
DA:436,5
DA:437,5
DA:438,5
DA:442,4
DA:443,4
DA:444,4
DA:446,4
DA:447,4
DA:449,0
DA:450,0
DA:451,0
DA:453,0
DA:454,0
DA:456,4
DA:458,4
DA:459,4
DA:460,4
DA:461,4
DA:462,4
DA:463,4
DA:465,4
DA:469,4
DA:470,3
DA:472,4
DA:475,0
DA:477,0
DA:478,0
DA:480,2
DA:481,2
DA:482,0
DA:483,0
DA:484,0
DA:487,2
DA:488,2
DA:491,2
DA:492,2
DA:493,2
DA:494,2
DA:495,2
DA:497,2
DA:499,2
DA:500,2
DA:501,2
DA:502,2
DA:503,2
DA:504,2
DA:506,2
DA:508,2
DA:511,4
DA:512,4
DA:513,4
DA:515,4
DA:517,2
DA:518,2
DA:519,2
DA:521,2
DA:524,44
DA:525,44
DA:526,44
DA:527,88
DA:528,44
DA:530,139
DA:531,139
DA:532,139
DA:533,139
DA:535,139
DA:536,139
DA:537,278
DA:538,139
DA:540,128
DA:541,128
DA:544,130
DA:545,130
DA:546,130
DA:547,390
DA:549,130
DA:552,54
DA:553,54
DA:554,54
DA:555,0
DA:556,0
DA:557,54
DA:560,54
DA:561,54
DA:562,1
DA:563,1
DA:566,54
DA:569,54
DA:570,54
DA:571,8
DA:572,8
DA:575,54
DA:576,54
DA:577,4
DA:578,4
DA:580,54
DA:582,8
DA:583,8
DA:585,8
DA:586,8
DA:587,0
DA:589,0
DA:590,0
DA:592,0
DA:594,0
DA:595,0
DA:596,0
DA:597,0
DA:599,0
DA:600,0
DA:603,0
DA:604,0
DA:607,0
DA:609,2
DA:610,2
DA:611,2
DA:612,0
DA:613,0
DA:615,0
DA:616,0
DA:618,2
DA:620,4
DA:621,4
DA:622,4
DA:623,4
DA:625,0
DA:626,0
DA:628,4
DA:631,2
DA:632,2
DA:633,2
DA:634,2
DA:636,0
DA:637,0
DA:639,2
DA:641,0
DA:642,0
DA:646,6
DA:648,6
DA:649,0
DA:650,0
DA:651,0
DA:654,0
DA:656,0
DA:657,0
DA:658,0
DA:659,0
DA:662,63
DA:663,63
DA:664,63
DA:665,63
DA:666,63
DA:667,63
DA:668,63
DA:669,63
DA:670,63
DA:672,54
DA:673,54
DA:674,54
DA:675,2
DA:676,2
DA:677,2
DA:680,54
DA:681,0
DA:682,0
DA:683,0
DA:685,0
DA:688,54
DA:689,0
DA:690,0
DA:691,0
DA:693,0
DA:696,54
DA:697,0
DA:698,0
DA:699,0
DA:701,0
DA:704,54
DA:705,0
DA:706,0
DA:707,0
DA:709,0
DA:712,54
DA:714,2
DA:715,2
DA:716,2
DA:717,0
DA:721,54
DA:724,56
DA:725,56
DA:726,56
DA:727,56
DA:728,56
DA:729,56
DA:730,56
LF:449
LH:364
end_of_record
TN:
SF:/home/runner/work/fuelflux/fuelflux/src/logger.cpp
FN:144,150,_ZN8fuelflux6Logger8shutdownEv
FN:152,163,_ZN8fuelflux6Logger9getLoggerERKNSt7__cxx1112basic_stringIcSt11char_traitsIcESaIcEEE
FN:165,172,_ZN8fuelflux6Logger8setLevelEN6spdlog5level10level_enumE
FN:169,171,_ZZN8fuelflux6Logger8setLevelEN6spdlog5level10level_enumEENKUlSt10shared_ptrINS1_6loggerEEE_clES6_
FN:174,176,_ZN8fuelflux6Logger13isInitializedEv
FN:178,307,_ZN8fuelflux6Logger10loadConfigERKNSt7__cxx1112basic_stringIcSt11char_traitsIcESaIcEEE
FN:25,47,_ZN8fuelflux12_GLOBAL__N_1L17getExecutablePathEv
FN:50,68,_ZN8fuelflux6Logger10initializeERKNSt7__cxx1112basic_stringIcSt11char_traitsIcESaIcEEE
FN:70,142,_ZN8fuelflux6Logger17initializeDefaultEv
FNDA:0,_ZN8fuelflux6Logger8shutdownEv
FNDA:1846,_ZN8fuelflux6Logger9getLoggerERKNSt7__cxx1112basic_stringIcSt11char_traitsIcESaIcEEE
FNDA:0,_ZN8fuelflux6Logger8setLevelEN6spdlog5level10level_enumE
FNDA:0,_ZZN8fuelflux6Logger8setLevelEN6spdlog5level10level_enumEENKUlSt10shared_ptrINS1_6loggerEEE_clES6_
FNDA:0,_ZN8fuelflux6Logger13isInitializedEv
FNDA:0,_ZN8fuelflux6Logger10loadConfigERKNSt7__cxx1112basic_stringIcSt11char_traitsIcESaIcEEE
FNDA:0,_ZN8fuelflux12_GLOBAL__N_1L17getExecutablePathEv
FNDA:0,_ZN8fuelflux6Logger10initializeERKNSt7__cxx1112basic_stringIcSt11char_traitsIcESaIcEEE
FNDA:0,_ZN8fuelflux6Logger17initializeDefaultEv
FNF:9
FNH:1
DA:25,0
DA:37,0
DA:38,0
DA:39,0
DA:41,0
DA:42,0
DA:43,0
DA:45,0
DA:47,0
DA:50,0
DA:51,0
DA:52,0
DA:55,0
DA:58,0
DA:59,0
DA:60,0
DA:61,0
DA:66,0
DA:67,0
DA:70,0
DA:71,0
DA:72,0
DA:77,0
DA:80,0
DA:83,0
DA:84,0
DA:85,0
DA:88,0
DA:89,0
DA:90,0
DA:93,0
DA:94,0
DA:95,0
DA:97,0
DA:101,0
DA:102,0
DA:103,0
DA:104,0
DA:107,0
DA:108,0
DA:109,0
DA:110,0
DA:113,0
DA:114,0
DA:115,0
DA:116,0
DA:119,0
DA:120,0
DA:121,0
DA:122,0
DA:125,0
DA:126,0
DA:127,0
DA:128,0
DA:131,0
DA:132,0
DA:134,0
DA:135,0
DA:136,0
DA:138,0
DA:139,0
DA:140,0
DA:141,0
DA:142,0
DA:144,0
DA:145,0
DA:146,0
DA:147,0
DA:148,0
DA:150,0
DA:152,1846
DA:153,1846
DA:154,1846
DA:156,1846
DA:157,1846
DA:159,0
DA:162,1846
DA:163,0
DA:165,0
DA:166,0
DA:169,0
DA:170,0
DA:171,0
DA:172,0
DA:174,0
DA:175,0
DA:178,0
DA:180,0
DA:181,0
DA:182,0
DA:185,0
DA:186,0
DA:187,0
DA:190,0
DA:191,0
DA:192,0
DA:193,0
DA:194,0
DA:195,0
DA:196,0
DA:199,0
DA:200,0
DA:201,0
DA:202,0
DA:205,0
DA:206,0
DA:208,0
DA:210,0
DA:213,0
DA:214,0
DA:217,0
DA:220,0
DA:221,0
DA:222,0
DA:223,0
DA:224,0
DA:228,0
DA:230,0
DA:231,0
DA:232,0
DA:234,0
DA:236,0
DA:237,0
DA:238,0
DA:239,0
DA:240,0
DA:241,0
DA:244,0
DA:245,0
DA:246,0
DA:247,0
DA:248,0
DA:249,0
DA:250,0
DA:253,0
DA:254,0
DA:255,0
DA:257,0
DA:259,0
DA:260,0
DA:262,0
DA:263,0
DA:266,0
DA:267,0
DA:268,0
DA:271,0
DA:272,0
DA:273,0
DA:275,0
DA:277,0
DA:278,0
DA:279,0
DA:280,0
DA:282,0
DA:283,0
DA:286,0
DA:287,0
DA:288,0
DA:291,0
DA:292,0
DA:296,0
DA:297,0
DA:298,0
DA:301,0
DA:303,0
DA:304,0
DA:305,0
DA:306,0
LF:168
LH:6
end_of_record
TN:
SF:/home/runner/work/fuelflux/fuelflux/src/message_storage.cpp
FN:121,163,_ZN8fuelflux14MessageStorage14GetNextBacklogEv
FN:13,28,_ZN8fuelflux14MessageStorageC2ERKNSt7__cxx1112basic_stringIcSt11char_traitsIcESaIcEEE
FN:165,181,_ZN8fuelflux14MessageStorage13RemoveBacklogEx
FN:183,201,_ZNK8fuelflux14MessageStorage12BacklogCountEv
FN:203,221,_ZNK8fuelflux14MessageStorage16DeadMessageCountEv
FN:30,36,_ZN8fuelflux14MessageStorageD2Ev
FN:38,41,_ZNK8fuelflux14MessageStorage6IsOpenEv
FN:43,55,_ZNK8fuelflux14MessageStorage7ExecuteERKNSt7__cxx1112basic_stringIcSt11char_traitsIcESaIcEEE
FN:57,65,_ZNK8fuelflux14MessageStorage14MethodToStringB5cxx11ENS_13MessageMethodE
FN:67,75,_ZNK8fuelflux14MessageStorage16MethodFromStringERKNSt7__cxx1112basic_stringIcSt11char_traitsIcESaIcEEE
FN:77,97,_ZN8fuelflux14MessageStorage10AddBacklogERKNSt7__cxx1112basic_stringIcSt11char_traitsIcESaIcEEENS_13MessageMethodES8_
FN:99,119,_ZN8fuelflux14MessageStorage14AddDeadMessageERKNSt7__cxx1112basic_stringIcSt11char_traitsIcESaIcEEENS_13MessageMethodES8_
FNDA:5,_ZN8fuelflux14MessageStorage14GetNextBacklogEv
FNDA:6,_ZN8fuelflux14MessageStorageC2ERKNSt7__cxx1112basic_stringIcSt11char_traitsIcESaIcEEE
FNDA:3,_ZN8fuelflux14MessageStorage13RemoveBacklogEx
FNDA:6,_ZNK8fuelflux14MessageStorage12BacklogCountEv
FNDA:5,_ZNK8fuelflux14MessageStorage16DeadMessageCountEv
FNDA:6,_ZN8fuelflux14MessageStorageD2Ev
FNDA:2,_ZNK8fuelflux14MessageStorage6IsOpenEv
FNDA:12,_ZNK8fuelflux14MessageStorage7ExecuteERKNSt7__cxx1112basic_stringIcSt11char_traitsIcESaIcEEE
FNDA:8,_ZNK8fuelflux14MessageStorage14MethodToStringB5cxx11ENS_13MessageMethodE
FNDA:5,_ZNK8fuelflux14MessageStorage16MethodFromStringERKNSt7__cxx1112basic_stringIcSt11char_traitsIcESaIcEEE
FNDA:6,_ZN8fuelflux14MessageStorage10AddBacklogERKNSt7__cxx1112basic_stringIcSt11char_traitsIcESaIcEEENS_13MessageMethodES8_
FNDA:2,_ZN8fuelflux14MessageStorage14AddDeadMessageERKNSt7__cxx1112basic_stringIcSt11char_traitsIcESaIcEEENS_13MessageMethodES8_
FNF:12
FNH:12
DA:13,6
DA:14,6
DA:15,6
DA:16,6
DA:17,6
DA:18,0
DA:19,0
DA:20,0
DA:21,0
DA:23,6
DA:24,6
DA:26,12
DA:27,6
DA:28,6
DA:30,6
DA:31,6
DA:32,6
DA:33,6
DA:34,6
DA:36,6
DA:38,2
DA:39,2
DA:40,2
DA:41,2
DA:43,12
DA:44,12
DA:45,12
DA:46,0
DA:48,12
DA:49,12
DA:50,12
DA:51,0
DA:52,0
DA:54,12
DA:55,12
DA:57,8
DA:58,8
DA:59,6
DA:60,12
DA:61,2
DA:62,4
DA:64,0
DA:67,5
DA:68,5
DA:69,4
DA:71,1
DA:72,1
DA:74,0
DA:77,6
DA:78,6
DA:79,6
DA:80,0
DA:83,6
DA:84,6
DA:85,6
DA:86,0
DA:89,6
DA:90,6
DA:91,6
DA:92,6
DA:94,6
DA:95,6
DA:96,6
DA:97,6
DA:99,2
DA:100,2
DA:101,2
DA:102,0
DA:105,2
DA:106,2
DA:107,2
DA:108,0
DA:111,2
DA:112,2
DA:113,2
DA:114,2
DA:116,2
DA:117,2
DA:118,2
DA:119,2
DA:121,5
DA:122,5
DA:123,5
DA:124,0
DA:127,5
DA:128,5
DA:129,5
DA:130,0
DA:133,5
DA:134,5
DA:135,5
DA:136,5
DA:137,5
DA:138,5
DA:139,5
DA:140,5
DA:141,5
DA:144,5
DA:145,0
DA:146,0
DA:148,5
DA:149,5
DA:150,0
DA:151,0
DA:153,5
DA:154,5
DA:155,5
DA:157,5
DA:158,5
DA:161,0
DA:162,0
DA:163,5
DA:165,3
DA:166,3
DA:167,3
DA:168,0
DA:171,3
DA:172,3
DA:173,3
DA:174,0
DA:177,3
DA:178,3
DA:179,3
DA:180,3
DA:181,3
DA:183,6
DA:184,6
DA:185,6
DA:186,0
DA:189,6
DA:190,6
DA:191,6
DA:192,0
DA:195,6
DA:196,6
DA:197,6
DA:199,6
DA:200,6
DA:201,6
DA:203,5
DA:204,5
DA:205,5
DA:206,0
DA:209,5
DA:210,5
DA:211,5
DA:212,0
DA:215,5
DA:216,5
DA:217,5
DA:219,5
DA:220,5
DA:221,5
LF:153
LH:126
end_of_record
TN:
SF:/home/runner/work/fuelflux/fuelflux/src/state_machine.cpp
FN:106,121,_ZN8fuelflux12StateMachine5resetEv
FN:11,21,_ZN8fuelflux12StateMachineC2EPNS_10ControllerE
FN:123,426,_ZN8fuelflux12StateMachine16setupTransitionsEv
FN:125,127,_ZZN8fuelflux12StateMachine16setupTransitionsEvENKUlvE_clEv
FN:169,169,_ZZN8fuelflux12StateMachine16setupTransitionsEvENKUlvE0_clEv
FN:170,170,_ZZN8fuelflux12StateMachine16setupTransitionsEvENKUlvE1_clEv
FN:211,211,_ZZN8fuelflux12StateMachine16setupTransitionsEvENKUlvE2_clEv
FN:212,212,_ZZN8fuelflux12StateMachine16setupTransitionsEvENKUlvE3_clEv
FN:221,221,_ZZN8fuelflux12StateMachine16setupTransitionsEvENKUlvE4_clEv
FN:227,227,_ZZN8fuelflux12StateMachine16setupTransitionsEvENKUlvE5_clEv
FN:23,29,_ZN8fuelflux12StateMachineD2Ev
FN:231,231,_ZZN8fuelflux12StateMachine16setupTransitionsEvENKUlvE6_clEv
FN:232,232,_ZZN8fuelflux12StateMachine16setupTransitionsEvENKUlvE7_clEv
FN:243,243,_ZZN8fuelflux12StateMachine16setupTransitionsEvENKUlvE8_clEv
FN:252,252,_ZZN8fuelflux12StateMachine16setupTransitionsEvENKUlvE9_clEv
FN:253,253,_ZZN8fuelflux12StateMachine16setupTransitionsEvENKUlvE10_clEv
FN:273,273,_ZZN8fuelflux12StateMachine16setupTransitionsEvENKUlvE11_clEv
FN:31,39,_ZN8fuelflux12StateMachine10initializeEv
FN:315,315,_ZZN8fuelflux12StateMachine16setupTransitionsEvENKUlvE12_clEv
FN:316,316,_ZZN8fuelflux12StateMachine16setupTransitionsEvENKUlvE13_clEv
FN:333,333,_ZZN8fuelflux12StateMachine16setupTransitionsEvENKUlvE14_clEv
FN:336,336,_ZZN8fuelflux12StateMachine16setupTransitionsEvENKUlvE15_clEv
FN:337,337,_ZZN8fuelflux12StateMachine16setupTransitionsEvENKUlvE16_clEv
FN:355,355,_ZZN8fuelflux12StateMachine16setupTransitionsEvENKUlvE17_clEv
FN:357,357,_ZZN8fuelflux12StateMachine16setupTransitionsEvENKUlvE18_clEv
FN:358,358,_ZZN8fuelflux12StateMachine16setupTransitionsEvENKUlvE19_clEv
FN:399,399,_ZZN8fuelflux12StateMachine16setupTransitionsEvENKUlvE20_clEv
FN:400,400,_ZZN8fuelflux12StateMachine16setupTransitionsEvENKUlvE21_clEv
FN:41,104,_ZN8fuelflux12StateMachine12processEventENS_5EventE
FN:420,420,_ZZN8fuelflux12StateMachine16setupTransitionsEvENKUlvE22_clEv
FN:428,469,_ZN8fuelflux12StateMachine12onEnterStateENS_11SystemStateE
FN:471,473,_ZN8fuelflux12StateMachine11onExitStateENS_11SystemStateE
FN:475,608,_ZNK8fuelflux12StateMachine17getDisplayMessageEv
FN:611,616,_ZN8fuelflux12StateMachine14onTankSelectedEv
FN:618,624,_ZN8fuelflux12StateMachine15onVolumeEnteredEv
FN:626,633,_ZN8fuelflux12StateMachine17onCancelRefuelingEv
FN:635,640,_ZN8fuelflux12StateMachine16onIntakeSelectedEv
FN:642,647,_ZN8fuelflux12StateMachine25onIntakeDirectionSelectedEv
FN:649,655,_ZN8fuelflux12StateMachine21onIntakeVolumeEnteredEv
FN:657,662,_ZN8fuelflux12StateMachine15onCancelPressedEv
FN:664,674,_ZN8fuelflux12StateMachine20onErrorCancelPressedEv
FN:676,681,_ZN8fuelflux12StateMachine9onTimeoutEv
FN:683,690,_ZNK8fuelflux12StateMachine16isTimeoutEnabledEv
FN:692,695,_ZN8fuelflux12StateMachine18updateActivityTimeEv
FN:697,739,_ZN8fuelflux12StateMachine21timeoutThreadFunctionEv
FNDA:0,_ZN8fuelflux12StateMachine5resetEv
FNDA:54,_ZN8fuelflux12StateMachineC2EPNS_10ControllerE
FNDA:54,_ZN8fuelflux12StateMachine16setupTransitionsEv
FNDA:73,_ZZN8fuelflux12StateMachine16setupTransitionsEvENKUlvE_clEv
FNDA:1,_ZZN8fuelflux12StateMachine16setupTransitionsEvENKUlvE0_clEv
FNDA:0,_ZZN8fuelflux12StateMachine16setupTransitionsEvENKUlvE1_clEv
FNDA:2,_ZZN8fuelflux12StateMachine16setupTransitionsEvENKUlvE2_clEv
FNDA:2,_ZZN8fuelflux12StateMachine16setupTransitionsEvENKUlvE3_clEv
FNDA:5,_ZZN8fuelflux12StateMachine16setupTransitionsEvENKUlvE4_clEv
FNDA:2,_ZZN8fuelflux12StateMachine16setupTransitionsEvENKUlvE5_clEv
FNDA:54,_ZN8fuelflux12StateMachineD2Ev
FNDA:0,_ZZN8fuelflux12StateMachine16setupTransitionsEvENKUlvE6_clEv
FNDA:0,_ZZN8fuelflux12StateMachine16setupTransitionsEvENKUlvE7_clEv
FNDA:4,_ZZN8fuelflux12StateMachine16setupTransitionsEvENKUlvE8_clEv
FNDA:0,_ZZN8fuelflux12StateMachine16setupTransitionsEvENKUlvE9_clEv
FNDA:0,_ZZN8fuelflux12StateMachine16setupTransitionsEvENKUlvE10_clEv
FNDA:0,_ZZN8fuelflux12StateMachine16setupTransitionsEvENKUlvE11_clEv
FNDA:53,_ZN8fuelflux12StateMachine10initializeEv
FNDA:0,_ZZN8fuelflux12StateMachine16setupTransitionsEvENKUlvE12_clEv
FNDA:1,_ZZN8fuelflux12StateMachine16setupTransitionsEvENKUlvE13_clEv
FNDA:2,_ZZN8fuelflux12StateMachine16setupTransitionsEvENKUlvE14_clEv
FNDA:0,_ZZN8fuelflux12StateMachine16setupTransitionsEvENKUlvE15_clEv
FNDA:0,_ZZN8fuelflux12StateMachine16setupTransitionsEvENKUlvE16_clEv
FNDA:2,_ZZN8fuelflux12StateMachine16setupTransitionsEvENKUlvE17_clEv
FNDA:0,_ZZN8fuelflux12StateMachine16setupTransitionsEvENKUlvE18_clEv
FNDA:0,_ZZN8fuelflux12StateMachine16setupTransitionsEvENKUlvE19_clEv
FNDA:0,_ZZN8fuelflux12StateMachine16setupTransitionsEvENKUlvE20_clEv
FNDA:0,_ZZN8fuelflux12StateMachine16setupTransitionsEvENKUlvE21_clEv
FNDA:95,_ZN8fuelflux12StateMachine12processEventENS_5EventE
FNDA:1,_ZZN8fuelflux12StateMachine16setupTransitionsEvENKUlvE22_clEv
FNDA:128,_ZN8fuelflux12StateMachine12onEnterStateENS_11SystemStateE
FNDA:75,_ZN8fuelflux12StateMachine11onExitStateENS_11SystemStateE
FNDA:232,_ZNK8fuelflux12StateMachine17getDisplayMessageEv
FNDA:5,_ZN8fuelflux12StateMachine14onTankSelectedEv
FNDA:4,_ZN8fuelflux12StateMachine15onVolumeEnteredEv
FNDA:0,_ZN8fuelflux12StateMachine17onCancelRefuelingEv
FNDA:2,_ZN8fuelflux12StateMachine16onIntakeSelectedEv
FNDA:2,_ZN8fuelflux12StateMachine25onIntakeDirectionSelectedEv
FNDA:2,_ZN8fuelflux12StateMachine21onIntakeVolumeEnteredEv
FNDA:3,_ZN8fuelflux12StateMachine15onCancelPressedEv
FNDA:1,_ZN8fuelflux12StateMachine20onErrorCancelPressedEv
FNDA:3,_ZN8fuelflux12StateMachine9onTimeoutEv
FNDA:0,_ZNK8fuelflux12StateMachine16isTimeoutEnabledEv
FNDA:27,_ZN8fuelflux12StateMachine18updateActivityTimeEv
FNDA:54,_ZN8fuelflux12StateMachine21timeoutThreadFunctionEv
FNF:45
FNH:29
DA:11,54
DA:12,54
DA:13,54
DA:14,54
DA:15,54
DA:17,54
DA:19,54
DA:20,54
DA:21,54
DA:23,54
DA:25,54
DA:26,54
DA:27,54
DA:29,54
DA:31,53
DA:33,53
DA:34,53
DA:35,53
DA:36,53
DA:37,53
DA:38,53
DA:39,53
DA:41,95
DA:42,95
DA:43,0
DA:44,0
DA:50,95
DA:54,95
DA:55,95
DA:56,95
DA:57,95
DA:58,95
DA:59,0
DA:61,0
DA:63,95
DA:64,95
DA:65,95
DA:66,95
DA:69,95
DA:71,95
DA:73,75
DA:77,95
DA:79,95
DA:80,0
DA:81,0
DA:82,0
DA:83,0
DA:84,0
DA:89,95
DA:90,95
DA:91,95
DA:92,95
DA:94,95
DA:96,75
DA:99,190
DA:103,95
DA:104,95
DA:106,0
DA:109,0
DA:111,0
DA:112,0
DA:113,0
DA:114,0
DA:115,0
DA:116,0
DA:117,0
DA:118,0
DA:120,0
DA:121,0
DA:123,54
DA:125,73
DA:126,73
DA:127,73
DA:133,54
DA:134,54
DA:135,54
DA:136,54
DA:137,54
DA:138,54
DA:139,54
DA:140,54
DA:141,54
DA:142,54
DA:143,54
DA:144,54
DA:145,54
DA:146,54
DA:147,54
DA:148,54
DA:149,54
DA:150,54
DA:151,54
DA:154,54
DA:155,54
DA:156,54
DA:157,54
DA:158,54
DA:159,54
DA:160,54
DA:161,54
DA:162,54
DA:163,54
DA:164,54
DA:165,54
DA:166,54
DA:167,54
DA:168,54
DA:169,55
DA:170,54
DA:171,54
DA:172,54
DA:175,54
DA:176,54
DA:177,54
DA:178,54
DA:179,54
DA:180,54
DA:181,54
DA:182,54
DA:183,54
DA:184,54
DA:185,54
DA:186,54
DA:187,54
DA:188,54
DA:189,54
DA:190,54
DA:191,54
DA:192,54
DA:193,54
DA:196,54
DA:197,54
DA:198,54
DA:199,54
DA:200,54
DA:201,54
DA:202,54
DA:203,54
DA:204,54
DA:205,54
DA:206,54
DA:207,54
DA:208,54
DA:209,54
DA:210,54
DA:211,56
DA:212,56
DA:213,54
DA:214,54
DA:217,54
DA:218,54
DA:219,54
DA:220,54
DA:221,59
DA:222,54
DA:223,54
DA:224,54
DA:225,54
DA:226,54
DA:227,56
DA:228,54
DA:229,54
DA:230,54
DA:231,54
DA:232,54
DA:233,54
DA:234,54
DA:237,54
DA:238,54
DA:239,54
DA:240,54
DA:241,54
DA:242,54
DA:243,58
DA:244,54
DA:245,54
DA:246,54
DA:247,54
DA:248,54
DA:249,54
DA:250,54
DA:251,54
DA:252,54
DA:253,54
DA:254,54
DA:255,54
DA:258,54
DA:259,54
DA:260,54
DA:261,54
DA:262,54
DA:263,54
DA:264,54
DA:265,54
DA:266,54
DA:267,54
DA:268,54
DA:269,54
DA:270,54
DA:271,54
DA:272,54
DA:273,54
DA:274,54
DA:275,54
DA:276,54
DA:279,54
DA:280,54
DA:281,54
DA:282,54
DA:283,54
DA:284,54
DA:285,54
DA:286,54
DA:287,54
DA:288,54
DA:289,54
DA:290,54
DA:291,54
DA:292,54
DA:293,54
DA:294,54
DA:295,54
DA:296,54
DA:297,54
DA:300,54
DA:301,54
DA:302,54
DA:303,54
DA:304,54
DA:305,54
DA:306,54
DA:307,54
DA:308,54
DA:309,54
DA:310,54
DA:311,54
DA:312,54
DA:313,54
DA:314,54
DA:315,54
DA:316,55
DA:317,54
DA:318,54
DA:321,54
DA:322,54
DA:323,54
DA:324,54
DA:325,54
DA:326,54
DA:327,54
DA:328,54
DA:329,54
DA:330,54
DA:331,54
DA:332,54
DA:333,56
DA:334,54
DA:335,54
DA:336,54
DA:337,54
DA:338,54
DA:339,54
DA:342,54
DA:343,54
DA:344,54
DA:345,54
DA:346,54
DA:347,54
DA:348,54
DA:349,54
DA:350,54
DA:351,54
DA:352,54
DA:353,54
DA:354,54
DA:355,56
DA:356,54
DA:357,54
DA:358,54
DA:359,54
DA:360,54
DA:363,54
DA:364,54
DA:365,54
DA:366,54
DA:367,54
DA:368,54
DA:369,54
DA:370,54
DA:371,54
DA:372,54
DA:373,54
DA:374,54
DA:375,54
DA:376,54
DA:377,54
DA:378,54
DA:379,54
DA:380,54
DA:381,54
DA:384,54
DA:385,54
DA:386,54
DA:387,54
DA:388,54
DA:389,54
DA:390,54
DA:391,54
DA:392,54
DA:393,54
DA:394,54
DA:395,54
DA:396,54
DA:397,54
DA:398,54
DA:399,54
DA:400,54
DA:401,54
DA:402,54
DA:405,54
DA:406,54
DA:407,54
DA:408,54
DA:409,54
DA:410,54
DA:411,54
DA:412,54
DA:413,54
DA:414,54
DA:415,54
DA:416,54
DA:417,54
DA:418,54
DA:419,54
DA:420,55
DA:421,54
DA:422,54
DA:423,54
DA:425,108
DA:426,54
DA:428,128
DA:429,256
DA:431,128
DA:435,128
DA:436,128
DA:438,128
DA:443,128
DA:444,16
DA:445,16
DA:448,16
DA:450,16
DA:452,112
DA:459,4
DA:461,4
DA:462,108
DA:464,2
DA:466,2
DA:469,128
DA:471,75
DA:472,150
DA:473,75
DA:475,232
DA:476,232
DA:477,232
DA:479,232
DA:481,0
DA:482,0
DA:483,0
DA:484,0
DA:485,0
DA:488,232
DA:489,105
DA:490,105
DA:491,105
DA:492,105
DA:493,105
DA:494,105
DA:496,17
DA:497,17
DA:498,17
DA:499,17
DA:500,17
DA:501,17
DA:503,16
DA:504,16
DA:505,16
DA:506,16
DA:507,16
DA:508,16
DA:510,15
DA:511,15
DA:512,15
DA:513,15
DA:514,15
DA:515,15
DA:517,18
DA:518,18
DA:519,18
DA:520,18
DA:521,37
DA:522,19
DA:524,18
DA:525,18
DA:527,18
DA:528,18
DA:529,18
DA:530,18
DA:531,18
DA:533,0
DA:535,18
DA:536,18
DA:538,8
DA:539,8
DA:540,8
DA:541,8
DA:542,8
DA:543,8
DA:545,4
DA:546,4
DA:547,4
DA:548,4
DA:549,4
DA:550,4
DA:552,6
DA:553,6
DA:554,6
DA:555,6
DA:556,6
DA:557,6
DA:559,8
DA:560,8
DA:561,8
DA:562,8
DA:563,8
DA:564,8
DA:566,9
DA:567,9
DA:568,9
DA:569,9
DA:570,9
DA:572,9
DA:573,9
DA:575,2
DA:576,2
DA:577,2
DA:578,2
DA:579,2
DA:580,2
DA:582,2
DA:583,2
DA:584,2
DA:585,2
DA:586,2
DA:588,2
DA:589,2
DA:591,4
DA:592,4
DA:593,4
DA:594,4
DA:595,4
DA:596,4
DA:598,0
DA:600,0
DA:601,0
DA:602,0
DA:603,0
DA:604,0
DA:607,232
DA:608,232
DA:611,5
DA:612,5
DA:613,5
DA:614,5
DA:616,5
DA:618,4
DA:619,4
DA:620,4
DA:621,4
DA:622,4
DA:624,4
DA:626,0
DA:627,0
DA:628,0
DA:630,0
DA:633,0
DA:635,2
DA:636,2
DA:637,2
DA:638,2
DA:640,2
DA:642,2
DA:643,2
DA:644,2
DA:645,2
DA:647,2
DA:649,2
DA:650,2
DA:651,2
DA:652,2
DA:655,2
DA:657,3
DA:658,3
DA:659,3
DA:660,3
DA:662,3
DA:664,1
DA:665,1
DA:666,1
DA:667,1
DA:668,1
DA:670,1
DA:674,1
DA:676,3
DA:677,3
DA:678,3
DA:679,3
DA:681,3
DA:683,0
DA:684,0
DA:685,0
DA:686,0
DA:687,0
DA:688,0
DA:689,0
DA:690,0
DA:692,27
DA:693,27
DA:694,27
DA:695,27
DA:697,54
DA:698,54
DA:700,108
DA:701,54
DA:703,54
DA:705,54
DA:707,54
DA:708,54
DA:709,54
DA:710,54
DA:715,54
DA:716,18
DA:717,18
DA:718,18
DA:720,36
DA:723,18
DA:724,18
DA:725,18
DA:726,0
DA:729,18
DA:730,0
DA:732,0
DA:733,0
DA:738,54
DA:739,54
LF:554
LH:504
end_of_record
TN:
SF:/home/runner/work/fuelflux/fuelflux/src/url_utils.cpp
FN:11,51,_ZN8fuelflux18ExtractHostFromUrlERKNSt7__cxx1112basic_stringIcSt11char_traitsIcESaIcEEE
FNDA:116,_ZN8fuelflux18ExtractHostFromUrlERKNSt7__cxx1112basic_stringIcSt11char_traitsIcESaIcEEE
FNF:1
FNH:1
DA:11,116
DA:12,116
DA:14,116
DA:15,116
DA:16,114
DA:20,116
DA:23,116
DA:24,116
DA:26,116
DA:27,116
DA:28,1
DA:31,116
DA:32,1
DA:33,1
DA:34,1
DA:38,115
DA:39,115
DA:41,115
DA:42,2
DA:43,102
DA:46,13
DA:47,1
DA:50,24
LF:23
LH:23
end_of_record
