TN:
SF:/home/runner/work/fuelflux/fuelflux/src/backend_base.cpp
FN:123,190,_ZN8fuelflux11BackendBase11DeauthorizeEv
FN:150,160,_ZZN8fuelflux11BackendBase11DeauthorizeEvENKUlvE_clEv
FN:192,270,_ZN8fuelflux11BackendBase6RefuelEid
FN:21,24,_ZN8fuelflux11BackendBase22GetDeauthorizeExecutorEv
FN:26,30,_ZN8fuelflux11BackendBaseC2ENSt7__cxx1112basic_stringIcSt11char_traitsIcESaIcEEESt10shared_ptrINS_14MessageStorageEE
FN:272,351,_ZN8fuelflux11BackendBase6IntakeEidNS_15IntakeDirectionE
FN:32,121,_ZN8fuelflux11BackendBase9AuthorizeERKNSt7__cxx1112basic_stringIcSt11char_traitsIcESaIcEEE
FN:353,385,_ZN8fuelflux11BackendBase13RefuelPayloadERKNSt7__cxx1112basic_stringIcSt11char_traitsIcESaIcEEE
FN:387,419,_ZN8fuelflux11BackendBase13IntakePayloadERKNSt7__cxx1112basic_stringIcSt11char_traitsIcESaIcEEE
FNDA:106,_ZN8fuelflux11BackendBase11DeauthorizeEv
FNDA:100,_ZZN8fuelflux11BackendBase11DeauthorizeEvENKUlvE_clEv
FNDA:12,_ZN8fuelflux11BackendBase6RefuelEid
FNDA:100,_ZN8fuelflux11BackendBase22GetDeauthorizeExecutorEv
FNDA:54,_ZN8fuelflux11BackendBaseC2ENSt7__cxx1112basic_stringIcSt11char_traitsIcESaIcEEESt10shared_ptrINS_14MessageStorageEE
FNDA:12,_ZN8fuelflux11BackendBase6IntakeEidNS_15IntakeDirectionE
FNDA:146,_ZN8fuelflux11BackendBase9AuthorizeERKNSt7__cxx1112basic_stringIcSt11char_traitsIcESaIcEEE
FNDA:0,_ZN8fuelflux11BackendBase13RefuelPayloadERKNSt7__cxx1112basic_stringIcSt11char_traitsIcESaIcEEE
FNDA:0,_ZN8fuelflux11BackendBase13IntakePayloadERKNSt7__cxx1112basic_stringIcSt11char_traitsIcESaIcEEE
FNF:9
FNH:7
DA:21,100
DA:22,100
DA:23,100
DA:26,54
DA:27,54
DA:28,54
DA:30,54
DA:32,146
DA:34,146
DA:35,2
DA:36,2
DA:40,288
DA:43,144
DA:44,144
DA:46,288
DA:55,144
DA:56,14
DA:57,14
DA:61,130
DA:62,2
DA:63,2
DA:64,2
DA:67,128
DA:68,0
DA:69,0
DA:72,128
DA:74,128
DA:75,0
DA:76,0
DA:79,128
DA:82,128
DA:83,120
DA:87,128
DA:88,120
DA:92,128
DA:93,552
DA:95,148
DA:96,148
DA:97,148
DA:98,148
DA:102,128
DA:103,128
DA:104,128
DA:105,128
DA:106,128
DA:107,128
DA:110,128
DA:116,128
DA:117,0
DA:118,0
DA:120,0
DA:123,106
DA:125,106
DA:126,2
DA:127,2
DA:131,104
DA:134,104
DA:138,104
DA:139,104
DA:140,104
DA:141,104
DA:149,104
DA:150,500
DA:152,100
DA:155,44
DA:156,0
DA:157,0
DA:158,0
DA:160,100
DA:162,100
DA:163,0
DA:165,4
DA:169,4
DA:170,0
DA:171,0
DA:172,0
DA:173,4
DA:175,208
DA:177,0
DA:179,0
DA:180,0
DA:181,0
DA:182,0
DA:186,0
DA:187,0
DA:189,0
DA:192,12
DA:194,12
DA:195,2
DA:196,2
DA:200,10
DA:201,0
DA:202,0
DA:206,10
DA:209,12
DA:210,10
DA:211,2
DA:212,2
DA:216,8
DA:217,2
DA:218,2
DA:222,6
DA:223,2
DA:224,2
DA:228,4
DA:231,4
DA:234,8
DA:235,8
DA:236,4
DA:238,4
DA:240,8
DA:242,4
DA:243,4
DA:244,2
DA:245,0
DA:246,0
DA:247,0
DA:249,0
DA:252,2
DA:256,2
DA:257,2
DA:258,0
DA:261,2
DA:262,2
DA:263,0
DA:264,0
DA:265,0
DA:266,0
DA:269,0
DA:272,12
DA:274,12
DA:275,2
DA:276,2
DA:280,10
DA:281,2
DA:282,2
DA:286,8
DA:289,8
DA:290,8
DA:291,2
DA:292,2
DA:296,6
DA:297,2
DA:298,2
DA:302,4
DA:303,0
DA:304,0
DA:308,4
DA:311,4
DA:314,8
DA:315,8
DA:316,8
DA:317,4
DA:319,4
DA:325,8
DA:327,4
DA:328,4
DA:329,2
DA:330,0
DA:331,0
DA:332,0
DA:334,0
DA:337,2
DA:342,2
DA:343,2
DA:344,0
DA:345,0
DA:346,0
DA:347,0
DA:350,0
DA:353,0
DA:355,0
DA:356,0
DA:357,0
DA:361,0
DA:362,0
DA:363,0
DA:364,0
DA:368,0
DA:370,0
DA:371,0
DA:372,0
DA:377,0
DA:378,0
DA:379,0
DA:380,0
DA:381,0
DA:384,0
DA:387,0
DA:389,0
DA:390,0
DA:391,0
DA:395,0
DA:396,0
DA:397,0
DA:398,0
DA:402,0
DA:404,0
DA:405,0
DA:406,0
DA:411,0
DA:412,0
DA:413,0
DA:414,0
DA:415,0
DA:418,0
LF:206
LH:125
end_of_record
TN:
SF:/home/runner/work/fuelflux/fuelflux/src/controller.cpp
FN:118,144,_ZN8fuelflux10Controller3runEv
FN:147,153,_ZN8fuelflux10Controller9postEventENS_5EventE
FN:156,158,_ZN8fuelflux10Controller10setDisplayESt10unique_ptrINS_11peripherals8IDisplayESt14default_deleteIS3_EE
FN:160,162,_ZN8fuelflux10Controller11setKeyboardESt10unique_ptrINS_11peripherals9IKeyboardESt14default_deleteIS3_EE
FN:164,166,_ZN8fuelflux10Controller13setCardReaderESt10unique_ptrINS_11peripherals11ICardReaderESt14default_deleteIS3_EE
FN:168,170,_ZN8fuelflux10Controller7setPumpESt10unique_ptrINS_11peripherals5IPumpESt14default_deleteIS3_EE
FN:172,174,_ZN8fuelflux10Controller12setFlowMeterESt10unique_ptrINS_11peripherals10IFlowMeterESt14default_deleteIS3_EE
FN:177,226,_ZN8fuelflux10Controller14handleKeyPressENS_7KeyCodeE
FN:20,22,_ZN8fuelflux10Controller20CreateDefaultBackendESt10shared_ptrINS_14MessageStorageEE
FN:228,233,_ZN8fuelflux10Controller19handleCardPresentedERKNSt7__cxx1112basic_stringIcSt11char_traitsIcESaIcEEE
FN:235,263,_ZN8fuelflux10Controller22handlePumpStateChangedEb
FN:24,27,_ZN8fuelflux10Controller26CreateDefaultBackendSharedERKNSt7__cxx1112basic_stringIcSt11char_traitsIcESaIcEEESt10shared_ptrINS_14MessageStorageEE
FN:265,276,_ZN8fuelflux10Controller16handleFlowUpdateEd
FN:279,284,_ZN8fuelflux10Controller13updateDisplayEv
FN:286,296,_ZN8fuelflux10Controller9showErrorERKNSt7__cxx1112basic_stringIcSt11char_traitsIcESaIcEEE
FN:29,41,_ZN8fuelflux10ControllerC2ENSt7__cxx1112basic_stringIcSt11char_traitsIcESaIcEEESt10shared_ptrINS_8IBackendEE
FN:298,308,_ZN8fuelflux10Controller11showMessageERKNSt7__cxx1112basic_stringIcSt11char_traitsIcESaIcEEES8_S8_S8_
FN:311,315,_ZN8fuelflux10Controller15startNewSessionEv
FN:317,330,_ZN8fuelflux10Controller17endCurrentSessionEv
FN:332,335,_ZN8fuelflux10Controller10clearInputEv
FN:337,340,_ZN8fuelflux10Controller16clearInputSilentEv
FN:342,347,_ZN8fuelflux10Controller15addDigitToInputEc
FN:349,354,_ZN8fuelflux10Controller15removeLastDigitEv
FN:356,359,_ZN8fuelflux10Controller11setMaxValueEv
FN:362,389,_ZN8fuelflux10Controller20requestAuthorizationERKNSt7__cxx1112basic_stringIcSt11char_traitsIcESaIcEEE
FN:392,402,_ZN8fuelflux10Controller10selectTankEi
FN:404,411,_ZNK8fuelflux10Controller11isTankValidEi
FN:413,423,_ZNK8fuelflux10Controller13getTankVolumeEi
FN:426,456,_ZN8fuelflux10Controller11enterVolumeEd
FN:43,45,_ZN8fuelflux10ControllerD2Ev
FN:459,464,_ZN8fuelflux10Controller14startRefuelingEv
FN:466,471,_ZN8fuelflux10Controller13stopRefuelingEv
FN:47,70,_ZN8fuelflux10Controller10initializeEv
FN:473,489,_ZN8fuelflux10Controller17completeRefuelingEv
FN:492,495,_ZN8fuelflux10Controller15startFuelIntakeEv
FN:497,506,_ZN8fuelflux10Controller17enterIntakeVolumeEd
FN:508,512,_ZN8fuelflux10Controller21selectIntakeDirectionENS_15IntakeDirectionE
FN:514,525,_ZN8fuelflux10Controller23completeIntakeOperationEv
FN:528,532,_ZN8fuelflux10Controller20logRefuelTransactionERKNS_17RefuelTransactionE
FN:534,538,_ZN8fuelflux10Controller20logIntakeTransactionERKNS_17IntakeTransactionE
FN:541,545,_ZNK8fuelflux10Controller12formatVolumeB5cxx11Ed
FN:547,555,_ZNK8fuelflux10Controller20getCurrentTimeStringB5cxx11Ev
FN:557,559,_ZNK8fuelflux10Controller21getDeviceSerialNumberB5cxx11Ev
FN:561,566,_ZN8fuelflux10Controller17enableCardReadingEb
FN:569,597,_ZN8fuelflux10Controller24setupPeripheralCallbacksEv
FN:599,661,_ZN8fuelflux10Controller19processNumericInputEv
FN:663,669,_ZNK8fuelflux10Controller20parseVolumeFromInputEv
FN:671,677,_ZNK8fuelflux10Controller18parseTankFromInputEv
FN:679,687,_ZN8fuelflux10Controller16resetSessionDataEv
FN:689,739,_ZN8fuelflux10Controller21initializePeripheralsEv
FN:72,83,_ZN8fuelflux10Controller8shutdownEv
FN:741,747,_ZN8fuelflux10Controller19shutdownPeripheralsEv
FN:85,116,_ZN8fuelflux10Controller18reinitializeDeviceEv
FNDA:74,_ZN8fuelflux10Controller3runEv
FNDA:284,_ZN8fuelflux10Controller9postEventENS_5EventE
FNDA:145,_ZN8fuelflux10Controller10setDisplayESt10unique_ptrINS_11peripherals8IDisplayESt14default_deleteIS3_EE
FNDA:145,_ZN8fuelflux10Controller11setKeyboardESt10unique_ptrINS_11peripherals9IKeyboardESt14default_deleteIS3_EE
FNDA:145,_ZN8fuelflux10Controller13setCardReaderESt10unique_ptrINS_11peripherals11ICardReaderESt14default_deleteIS3_EE
FNDA:145,_ZN8fuelflux10Controller7setPumpESt10unique_ptrINS_11peripherals5IPumpESt14default_deleteIS3_EE
FNDA:145,_ZN8fuelflux10Controller12setFlowMeterESt10unique_ptrINS_11peripherals10IFlowMeterESt14default_deleteIS3_EE
FNDA:82,_ZN8fuelflux10Controller14handleKeyPressENS_7KeyCodeE
FNDA:0,_ZN8fuelflux10Controller20CreateDefaultBackendESt10shared_ptrINS_14MessageStorageEE
FNDA:58,_ZN8fuelflux10Controller19handleCardPresentedERKNSt7__cxx1112basic_stringIcSt11char_traitsIcESaIcEEE
FNDA:36,_ZN8fuelflux10Controller22handlePumpStateChangedEb
FNDA:0,_ZN8fuelflux10Controller26CreateDefaultBackendSharedERKNSt7__cxx1112basic_stringIcSt11char_traitsIcESaIcEEESt10shared_ptrINS_14MessageStorageEE
FNDA:10,_ZN8fuelflux10Controller16handleFlowUpdateEd
FNDA:773,_ZN8fuelflux10Controller13updateDisplayEv
FNDA:42,_ZN8fuelflux10Controller9showErrorERKNSt7__cxx1112basic_stringIcSt11char_traitsIcESaIcEEE
FNDA:145,_ZN8fuelflux10ControllerC2ENSt7__cxx1112basic_stringIcSt11char_traitsIcESaIcEEESt10shared_ptrINS_8IBackendEE
FNDA:10,_ZN8fuelflux10Controller11showMessageERKNSt7__cxx1112basic_stringIcSt11char_traitsIcESaIcEEES8_S8_S8_
FNDA:2,_ZN8fuelflux10Controller15startNewSessionEv
FNDA:14,_ZN8fuelflux10Controller17endCurrentSessionEv
FNDA:78,_ZN8fuelflux10Controller10clearInputEv
FNDA:62,_ZN8fuelflux10Controller16clearInputSilentEv
FNDA:164,_ZN8fuelflux10Controller15addDigitToInputEc
FNDA:6,_ZN8fuelflux10Controller15removeLastDigitEv
FNDA:0,_ZN8fuelflux10Controller11setMaxValueEv
FNDA:62,_ZN8fuelflux10Controller20requestAuthorizationERKNSt7__cxx1112basic_stringIcSt11char_traitsIcESaIcEEE
FNDA:44,_ZN8fuelflux10Controller10selectTankEi
FNDA:26,_ZNK8fuelflux10Controller11isTankValidEi
FNDA:45,_ZNK8fuelflux10Controller13getTankVolumeEi
FNDA:56,_ZN8fuelflux10Controller11enterVolumeEd
FNDA:145,_ZN8fuelflux10ControllerD2Ev
FNDA:24,_ZN8fuelflux10Controller14startRefuelingEv
FNDA:0,_ZN8fuelflux10Controller13stopRefuelingEv
FNDA:143,_ZN8fuelflux10Controller10initializeEv
FNDA:8,_ZN8fuelflux10Controller17completeRefuelingEv
FNDA:0,_ZN8fuelflux10Controller15startFuelIntakeEv
FNDA:4,_ZN8fuelflux10Controller17enterIntakeVolumeEd
FNDA:4,_ZN8fuelflux10Controller21selectIntakeDirectionENS_15IntakeDirectionE
FNDA:4,_ZN8fuelflux10Controller23completeIntakeOperationEv
FNDA:0,_ZN8fuelflux10Controller20logRefuelTransactionERKNS_17RefuelTransactionE
FNDA:0,_ZN8fuelflux10Controller20logIntakeTransactionERKNS_17IntakeTransactionE
FNDA:338,_ZNK8fuelflux10Controller12formatVolumeB5cxx11Ed
FNDA:359,_ZNK8fuelflux10Controller20getCurrentTimeStringB5cxx11Ev
FNDA:357,_ZNK8fuelflux10Controller21getDeviceSerialNumberB5cxx11Ev
FNDA:463,_ZN8fuelflux10Controller17enableCardReadingEb
FNDA:145,_ZN8fuelflux10Controller24setupPeripheralCallbacksEv
FNDA:44,_ZN8fuelflux10Controller19processNumericInputEv
FNDA:40,_ZNK8fuelflux10Controller20parseVolumeFromInputEv
FNDA:0,_ZNK8fuelflux10Controller18parseTankFromInputEv
FNDA:163,_ZN8fuelflux10Controller16resetSessionDataEv
FNDA:145,_ZN8fuelflux10Controller21initializePeripheralsEv
FNDA:372,_ZN8fuelflux10Controller8shutdownEv
FNDA:149,_ZN8fuelflux10Controller19shutdownPeripheralsEv
FNDA:2,_ZN8fuelflux10Controller18reinitializeDeviceEv
FNF:53
FNH:45
DA:20,0
DA:21,0
DA:24,0
DA:26,0
DA:29,145
DA:30,145
DA:31,145
DA:32,290
DA:33,145
DA:34,145
DA:35,145
DA:36,145
DA:37,145
DA:38,290
DA:40,145
DA:41,145
DA:43,145
DA:44,145
DA:45,435
DA:47,143
DA:48,286
DA:51,143
DA:54,143
DA:57,143
DA:62,143
DA:63,143
DA:64,4
DA:65,4
DA:67,278
DA:69,143
DA:72,372
DA:73,372
DA:75,372
DA:76,143
DA:77,143
DA:80,143
DA:82,372
DA:83,372
DA:85,2
DA:86,4
DA:92,2
DA:98,2
DA:101,2
DA:102,2
DA:103,2
DA:106,2
DA:110,2
DA:111,4
DA:113,0
DA:115,2
DA:118,74
DA:119,74
DA:121,418
DA:125,344
DA:126,344
DA:128,744
DA:130,344
DA:131,262
DA:137,344
DA:138,262
DA:141,82
DA:144,74
DA:147,284
DA:149,284
DA:152,284
DA:153,284
DA:156,145
DA:158,145
DA:160,145
DA:162,145
DA:164,145
DA:166,145
DA:168,145
DA:170,145
DA:172,145
DA:174,145
DA:177,82
DA:178,82
DA:181,82
DA:185,82
DA:186,32
DA:197,32
DA:199,22
DA:201,32
DA:202,32
DA:204,0
DA:206,0
DA:207,0
DA:212,4
DA:213,4
DA:214,4
DA:216,44
DA:217,44
DA:218,44
DA:220,2
DA:221,2
DA:222,2
DA:226,82
DA:228,58
DA:229,58
DA:231,58
DA:232,58
DA:233,58
DA:235,36
DA:236,46
DA:238,36
DA:239,26
DA:240,26
DA:241,26
DA:246,26
DA:247,26
DA:248,0
DA:249,0
DA:250,0
DA:251,0
DA:253,52
DA:256,26
DA:258,10
DA:259,10
DA:261,10
DA:263,36
DA:265,10
DA:266,10
DA:269,10
DA:270,8
DA:271,8
DA:275,10
DA:276,10
DA:279,773
DA:280,773
DA:282,773
DA:283,773
DA:284,773
DA:286,42
DA:287,42
DA:288,42
DA:293,84
DA:294,42
DA:295,42
DA:296,42
DA:298,10
DA:300,10
DA:306,10
DA:307,10
DA:308,10
DA:311,2
DA:312,2
DA:314,2
DA:315,2
DA:317,14
DA:318,14
DA:320,14
DA:321,0
DA:323,14
DA:324,14
DA:326,14
DA:327,0
DA:329,14
DA:330,14
DA:332,78
DA:334,126
DA:335,0
DA:337,62
DA:340,62
DA:342,164
DA:343,164
DA:344,154
DA:345,154
DA:347,164
DA:349,6
DA:350,6
DA:351,6
DA:352,6
DA:354,6
DA:356,0
DA:357,0
DA:358,0
DA:359,0
DA:362,62
DA:363,62
DA:364,0
DA:365,0
DA:366,0
DA:370,62
DA:371,50
DA:372,50
DA:373,50
DA:374,50
DA:377,106
DA:379,56
DA:380,56
DA:383,50
DA:385,12
DA:387,12
DA:392,44
DA:393,44
DA:394,44
DA:396,44
DA:397,6
DA:399,38
DA:402,44
DA:404,26
DA:405,70
DA:406,44
DA:413,45
DA:414,45
DA:415,45
DA:416,45
DA:417,41
DA:418,41
DA:426,56
DA:428,56
DA:429,32
DA:431,16
DA:435,40
DA:438,40
DA:439,16
DA:441,8
DA:445,32
DA:446,28
DA:447,8
DA:449,4
DA:453,28
DA:454,28
DA:455,28
DA:459,24
DA:460,24
DA:461,24
DA:463,24
DA:464,24
DA:466,0
DA:467,0
DA:468,0
DA:470,0
DA:471,0
DA:473,8
DA:476,8
DA:477,8
DA:478,8
DA:479,8
DA:480,8
DA:486,8
DA:487,6
DA:489,8
DA:492,0
DA:494,0
DA:495,0
DA:497,4
DA:498,4
DA:499,0
DA:501,0
DA:504,4
DA:505,4
DA:508,4
DA:509,4
DA:511,4
DA:512,4
DA:514,4
DA:517,4
DA:518,4
DA:519,4
DA:520,4
DA:521,4
DA:525,4
DA:528,0
DA:529,8
DA:530,8
DA:532,0
DA:534,0
DA:535,4
DA:536,4
DA:538,0
DA:541,338
DA:542,338
DA:543,338
DA:544,338
DA:545,338
DA:547,359
DA:548,359
DA:549,359
DA:550,359
DA:552,359
DA:553,359
DA:554,359
DA:555,359
DA:557,357
DA:558,357
DA:561,463
DA:562,463
DA:563,463
DA:564,1216
DA:566,463
DA:569,145
DA:570,145
DA:571,290
DA:572,0
DA:574,145
DA:577,145
DA:578,290
DA:579,2
DA:583,145
DA:586,145
DA:587,290
DA:588,32
DA:592,145
DA:593,290
DA:594,8
DA:597,145
DA:599,44
DA:600,44
DA:603,44
DA:604,0
DA:606,0
DA:607,0
DA:609,0
DA:611,0
DA:612,0
DA:613,0
DA:614,0
DA:616,0
DA:620,0
DA:626,4
DA:627,4
DA:628,4
DA:629,0
DA:630,0
DA:632,0
DA:637,36
DA:638,36
DA:639,36
DA:640,36
DA:642,0
DA:648,4
DA:649,4
DA:650,4
DA:651,4
DA:653,0
DA:663,40
DA:666,0
DA:668,0
DA:671,0
DA:674,0
DA:676,0
DA:679,163
DA:680,326
DA:682,163
DA:683,163
DA:684,163
DA:685,163
DA:686,163
DA:687,163
DA:689,145
DA:691,145
DA:692,4
DA:693,4
DA:697,145
DA:698,0
DA:699,0
DA:700,0
DA:705,145
DA:706,0
DA:707,0
DA:708,0
DA:713,145
DA:714,0
DA:715,0
DA:716,0
DA:721,145
DA:722,0
DA:723,0
DA:724,0
DA:729,145
DA:731,4
DA:732,4
DA:733,4
DA:734,0
DA:738,145
DA:741,149
DA:742,149
DA:743,149
DA:744,149
DA:745,149
DA:746,149
DA:747,149
LF:384
LH:314
end_of_record
